	.arch armv8-a
	.file	"boxFilter.cpp"
	.text
.Ltext0:
	.section	.text._ZN7cvflann7anyimpl14big_any_policyINS0_9empty_anyEED2Ev,"axG",@progbits,_ZN7cvflann7anyimpl14big_any_policyINS0_9empty_anyEED5Ev,comdat
	.align	2
	.p2align 3,,7
	.weak	_ZN7cvflann7anyimpl14big_any_policyINS0_9empty_anyEED2Ev
	.type	_ZN7cvflann7anyimpl14big_any_policyINS0_9empty_anyEED2Ev, %function
_ZN7cvflann7anyimpl14big_any_policyINS0_9empty_anyEED2Ev:
.LFB12243:
	.file 1 "/usr/include/opencv2/flann/any.h"
	.loc 1 78 0
	.cfi_startproc
.LVL0:
	.loc 1 78 0
	ret
	.cfi_endproc
.LFE12243:
	.size	_ZN7cvflann7anyimpl14big_any_policyINS0_9empty_anyEED2Ev, .-_ZN7cvflann7anyimpl14big_any_policyINS0_9empty_anyEED2Ev
	.weak	_ZN7cvflann7anyimpl14big_any_policyINS0_9empty_anyEED1Ev
	.set	_ZN7cvflann7anyimpl14big_any_policyINS0_9empty_anyEED1Ev,_ZN7cvflann7anyimpl14big_any_policyINS0_9empty_anyEED2Ev
	.section	.text._ZN7cvflann7anyimpl16small_any_policyIPKcED2Ev,"axG",@progbits,_ZN7cvflann7anyimpl16small_any_policyIPKcED5Ev,comdat
	.align	2
	.p2align 3,,7
	.weak	_ZN7cvflann7anyimpl16small_any_policyIPKcED2Ev
	.type	_ZN7cvflann7anyimpl16small_any_policyIPKcED2Ev, %function
_ZN7cvflann7anyimpl16small_any_policyIPKcED2Ev:
.LFB13077:
	.loc 1 63 0
	.cfi_startproc
.LVL1:
	.loc 1 63 0
	ret
	.cfi_endproc
.LFE13077:
	.size	_ZN7cvflann7anyimpl16small_any_policyIPKcED2Ev, .-_ZN7cvflann7anyimpl16small_any_policyIPKcED2Ev
	.weak	_ZN7cvflann7anyimpl16small_any_policyIPKcED1Ev
	.set	_ZN7cvflann7anyimpl16small_any_policyIPKcED1Ev,_ZN7cvflann7anyimpl16small_any_policyIPKcED2Ev
	.section	.text._ZN7cvflann7anyimpl16small_any_policyIiED2Ev,"axG",@progbits,_ZN7cvflann7anyimpl16small_any_policyIiED5Ev,comdat
	.align	2
	.p2align 3,,7
	.weak	_ZN7cvflann7anyimpl16small_any_policyIiED2Ev
	.type	_ZN7cvflann7anyimpl16small_any_policyIiED2Ev, %function
_ZN7cvflann7anyimpl16small_any_policyIiED2Ev:
.LFB13680:
	.loc 1 63 0
	.cfi_startproc
.LVL2:
	.loc 1 63 0
	ret
	.cfi_endproc
.LFE13680:
	.size	_ZN7cvflann7anyimpl16small_any_policyIiED2Ev, .-_ZN7cvflann7anyimpl16small_any_policyIiED2Ev
	.weak	_ZN7cvflann7anyimpl16small_any_policyIiED1Ev
	.set	_ZN7cvflann7anyimpl16small_any_policyIiED1Ev,_ZN7cvflann7anyimpl16small_any_policyIiED2Ev
	.section	.text._ZN7cvflann7anyimpl16small_any_policyIfED2Ev,"axG",@progbits,_ZN7cvflann7anyimpl16small_any_policyIfED5Ev,comdat
	.align	2
	.p2align 3,,7
	.weak	_ZN7cvflann7anyimpl16small_any_policyIfED2Ev
	.type	_ZN7cvflann7anyimpl16small_any_policyIfED2Ev, %function
_ZN7cvflann7anyimpl16small_any_policyIfED2Ev:
.LFB13695:
	.loc 1 63 0
	.cfi_startproc
.LVL3:
	.loc 1 63 0
	ret
	.cfi_endproc
.LFE13695:
	.size	_ZN7cvflann7anyimpl16small_any_policyIfED2Ev, .-_ZN7cvflann7anyimpl16small_any_policyIfED2Ev
	.weak	_ZN7cvflann7anyimpl16small_any_policyIfED1Ev
	.set	_ZN7cvflann7anyimpl16small_any_policyIfED1Ev,_ZN7cvflann7anyimpl16small_any_policyIfED2Ev
	.section	.text._ZN7cvflann7anyimpl16small_any_policyIbED2Ev,"axG",@progbits,_ZN7cvflann7anyimpl16small_any_policyIbED5Ev,comdat
	.align	2
	.p2align 3,,7
	.weak	_ZN7cvflann7anyimpl16small_any_policyIbED2Ev
	.type	_ZN7cvflann7anyimpl16small_any_policyIbED2Ev, %function
_ZN7cvflann7anyimpl16small_any_policyIbED2Ev:
.LFB13710:
	.loc 1 63 0
	.cfi_startproc
.LVL4:
	.loc 1 63 0
	ret
	.cfi_endproc
.LFE13710:
	.size	_ZN7cvflann7anyimpl16small_any_policyIbED2Ev, .-_ZN7cvflann7anyimpl16small_any_policyIbED2Ev
	.weak	_ZN7cvflann7anyimpl16small_any_policyIbED1Ev
	.set	_ZN7cvflann7anyimpl16small_any_policyIbED1Ev,_ZN7cvflann7anyimpl16small_any_policyIbED2Ev
	.section	.text._ZN7cvflann7anyimpl14big_any_policyINS_17flann_algorithm_tEED2Ev,"axG",@progbits,_ZN7cvflann7anyimpl14big_any_policyINS_17flann_algorithm_tEED5Ev,comdat
	.align	2
	.p2align 3,,7
	.weak	_ZN7cvflann7anyimpl14big_any_policyINS_17flann_algorithm_tEED2Ev
	.type	_ZN7cvflann7anyimpl14big_any_policyINS_17flann_algorithm_tEED2Ev, %function
_ZN7cvflann7anyimpl14big_any_policyINS_17flann_algorithm_tEED2Ev:
.LFB13746:
	.loc 1 78 0
	.cfi_startproc
.LVL5:
	.loc 1 78 0
	ret
	.cfi_endproc
.LFE13746:
	.size	_ZN7cvflann7anyimpl14big_any_policyINS_17flann_algorithm_tEED2Ev, .-_ZN7cvflann7anyimpl14big_any_policyINS_17flann_algorithm_tEED2Ev
	.weak	_ZN7cvflann7anyimpl14big_any_policyINS_17flann_algorithm_tEED1Ev
	.set	_ZN7cvflann7anyimpl14big_any_policyINS_17flann_algorithm_tEED1Ev,_ZN7cvflann7anyimpl14big_any_policyINS_17flann_algorithm_tEED2Ev
	.section	.text._ZN7cvflann7anyimpl14big_any_policyINS_20flann_centers_init_tEED2Ev,"axG",@progbits,_ZN7cvflann7anyimpl14big_any_policyINS_20flann_centers_init_tEED5Ev,comdat
	.align	2
	.p2align 3,,7
	.weak	_ZN7cvflann7anyimpl14big_any_policyINS_20flann_centers_init_tEED2Ev
	.type	_ZN7cvflann7anyimpl14big_any_policyINS_20flann_centers_init_tEED2Ev, %function
_ZN7cvflann7anyimpl14big_any_policyINS_20flann_centers_init_tEED2Ev:
.LFB13761:
	.loc 1 78 0
	.cfi_startproc
.LVL6:
	.loc 1 78 0
	ret
	.cfi_endproc
.LFE13761:
	.size	_ZN7cvflann7anyimpl14big_any_policyINS_20flann_centers_init_tEED2Ev, .-_ZN7cvflann7anyimpl14big_any_policyINS_20flann_centers_init_tEED2Ev
	.weak	_ZN7cvflann7anyimpl14big_any_policyINS_20flann_centers_init_tEED1Ev
	.set	_ZN7cvflann7anyimpl14big_any_policyINS_20flann_centers_init_tEED1Ev,_ZN7cvflann7anyimpl14big_any_policyINS_20flann_centers_init_tEED2Ev
	.section	.text._ZN7cvflann7anyimpl16small_any_policyIjED2Ev,"axG",@progbits,_ZN7cvflann7anyimpl16small_any_policyIjED5Ev,comdat
	.align	2
	.p2align 3,,7
	.weak	_ZN7cvflann7anyimpl16small_any_policyIjED2Ev
	.type	_ZN7cvflann7anyimpl16small_any_policyIjED2Ev, %function
_ZN7cvflann7anyimpl16small_any_policyIjED2Ev:
.LFB13837:
	.loc 1 63 0
	.cfi_startproc
.LVL7:
	.loc 1 63 0
	ret
	.cfi_endproc
.LFE13837:
	.size	_ZN7cvflann7anyimpl16small_any_policyIjED2Ev, .-_ZN7cvflann7anyimpl16small_any_policyIjED2Ev
	.weak	_ZN7cvflann7anyimpl16small_any_policyIjED1Ev
	.set	_ZN7cvflann7anyimpl16small_any_policyIjED1Ev,_ZN7cvflann7anyimpl16small_any_policyIjED2Ev
	.section	.text._ZN7cvflann7anyimpl14big_any_policyIN2cv6StringEED2Ev,"axG",@progbits,_ZN7cvflann7anyimpl14big_any_policyIN2cv6StringEED5Ev,comdat
	.align	2
	.p2align 3,,7
	.weak	_ZN7cvflann7anyimpl14big_any_policyIN2cv6StringEED2Ev
	.type	_ZN7cvflann7anyimpl14big_any_policyIN2cv6StringEED2Ev, %function
_ZN7cvflann7anyimpl14big_any_policyIN2cv6StringEED2Ev:
.LFB13852:
	.loc 1 78 0
	.cfi_startproc
.LVL8:
	.loc 1 78 0
	ret
	.cfi_endproc
.LFE13852:
	.size	_ZN7cvflann7anyimpl14big_any_policyIN2cv6StringEED2Ev, .-_ZN7cvflann7anyimpl14big_any_policyIN2cv6StringEED2Ev
	.weak	_ZN7cvflann7anyimpl14big_any_policyIN2cv6StringEED1Ev
	.set	_ZN7cvflann7anyimpl14big_any_policyIN2cv6StringEED1Ev,_ZN7cvflann7anyimpl14big_any_policyIN2cv6StringEED2Ev
	.section	.text._ZN7cvflann7anyimpl16small_any_policyIjE13static_deleteEPPv,"axG",@progbits,_ZN7cvflann7anyimpl16small_any_policyIjE13static_deleteEPPv,comdat
	.align	2
	.p2align 3,,7
	.weak	_ZN7cvflann7anyimpl16small_any_policyIjE13static_deleteEPPv
	.type	_ZN7cvflann7anyimpl16small_any_policyIjE13static_deleteEPPv, %function
_ZN7cvflann7anyimpl16small_any_policyIjE13static_deleteEPPv:
.LFB15052:
	.loc 1 65 0
	.cfi_startproc
.LVL9:
	.loc 1 65 0
	ret
	.cfi_endproc
.LFE15052:
	.size	_ZN7cvflann7anyimpl16small_any_policyIjE13static_deleteEPPv, .-_ZN7cvflann7anyimpl16small_any_policyIjE13static_deleteEPPv
	.section	.text._ZN7cvflann7anyimpl16small_any_policyIjE15copy_from_valueEPKvPPv,"axG",@progbits,_ZN7cvflann7anyimpl16small_any_policyIjE15copy_from_valueEPKvPPv,comdat
	.align	2
	.p2align 3,,7
	.weak	_ZN7cvflann7anyimpl16small_any_policyIjE15copy_from_valueEPKvPPv
	.type	_ZN7cvflann7anyimpl16small_any_policyIjE15copy_from_valueEPKvPPv, %function
_ZN7cvflann7anyimpl16small_any_policyIjE15copy_from_valueEPKvPPv:
.LFB15053:
	.loc 1 66 0
	.cfi_startproc
.LVL10:
	.loc 1 68 0
	cbz	x2, .L12
	ldr	w0, [x1]
.LVL11:
	str	w0, [x2]
.L12:
	.loc 1 69 0
	ret
	.cfi_endproc
.LFE15053:
	.size	_ZN7cvflann7anyimpl16small_any_policyIjE15copy_from_valueEPKvPPv, .-_ZN7cvflann7anyimpl16small_any_policyIjE15copy_from_valueEPKvPPv
	.section	.text._ZN7cvflann7anyimpl16small_any_policyIjE5cloneEPKPvPS3_,"axG",@progbits,_ZN7cvflann7anyimpl16small_any_policyIjE5cloneEPKPvPS3_,comdat
	.align	2
	.p2align 3,,7
	.weak	_ZN7cvflann7anyimpl16small_any_policyIjE5cloneEPKPvPS3_
	.type	_ZN7cvflann7anyimpl16small_any_policyIjE5cloneEPKPvPS3_, %function
_ZN7cvflann7anyimpl16small_any_policyIjE5cloneEPKPvPS3_:
.LFB15054:
	.loc 1 70 0
	.cfi_startproc
.LVL12:
	.loc 1 70 0
	ldr	x0, [x1]
.LVL13:
	str	x0, [x2]
	ret
	.cfi_endproc
.LFE15054:
	.size	_ZN7cvflann7anyimpl16small_any_policyIjE5cloneEPKPvPS3_, .-_ZN7cvflann7anyimpl16small_any_policyIjE5cloneEPKPvPS3_
	.section	.text._ZN7cvflann7anyimpl16small_any_policyIjE4moveEPKPvPS3_,"axG",@progbits,_ZN7cvflann7anyimpl16small_any_policyIjE4moveEPKPvPS3_,comdat
	.align	2
	.p2align 3,,7
	.weak	_ZN7cvflann7anyimpl16small_any_policyIjE4moveEPKPvPS3_
	.type	_ZN7cvflann7anyimpl16small_any_policyIjE4moveEPKPvPS3_, %function
_ZN7cvflann7anyimpl16small_any_policyIjE4moveEPKPvPS3_:
.LFB15055:
	.loc 1 71 0
	.cfi_startproc
.LVL14:
	.loc 1 71 0
	ldr	x0, [x1]
.LVL15:
	str	x0, [x2]
	ret
	.cfi_endproc
.LFE15055:
	.size	_ZN7cvflann7anyimpl16small_any_policyIjE4moveEPKPvPS3_, .-_ZN7cvflann7anyimpl16small_any_policyIjE4moveEPKPvPS3_
	.section	.text._ZN7cvflann7anyimpl16small_any_policyIjE9get_valueEPPv,"axG",@progbits,_ZN7cvflann7anyimpl16small_any_policyIjE9get_valueEPPv,comdat
	.align	2
	.p2align 3,,7
	.weak	_ZN7cvflann7anyimpl16small_any_policyIjE9get_valueEPPv
	.type	_ZN7cvflann7anyimpl16small_any_policyIjE9get_valueEPPv, %function
_ZN7cvflann7anyimpl16small_any_policyIjE9get_valueEPPv:
.LFB15056:
	.loc 1 72 0
	.cfi_startproc
.LVL16:
	.loc 1 72 0
	mov	x0, x1
.LVL17:
	ret
	.cfi_endproc
.LFE15056:
	.size	_ZN7cvflann7anyimpl16small_any_policyIjE9get_valueEPPv, .-_ZN7cvflann7anyimpl16small_any_policyIjE9get_valueEPPv
	.section	.text._ZN7cvflann7anyimpl16small_any_policyIjE9get_valueEPKPv,"axG",@progbits,_ZN7cvflann7anyimpl16small_any_policyIjE9get_valueEPKPv,comdat
	.align	2
	.p2align 3,,7
	.weak	_ZN7cvflann7anyimpl16small_any_policyIjE9get_valueEPKPv
	.type	_ZN7cvflann7anyimpl16small_any_policyIjE9get_valueEPKPv, %function
_ZN7cvflann7anyimpl16small_any_policyIjE9get_valueEPKPv:
.LFB15057:
	.loc 1 73 0
	.cfi_startproc
.LVL18:
	.loc 1 73 0
	mov	x0, x1
.LVL19:
	ret
	.cfi_endproc
.LFE15057:
	.size	_ZN7cvflann7anyimpl16small_any_policyIjE9get_valueEPKPv, .-_ZN7cvflann7anyimpl16small_any_policyIjE9get_valueEPKPv
	.section	.text._ZN7cvflann7anyimpl21typed_base_any_policyIjE8get_sizeEv,"axG",@progbits,_ZN7cvflann7anyimpl21typed_base_any_policyIjE8get_sizeEv,comdat
	.align	2
	.p2align 3,,7
	.weak	_ZN7cvflann7anyimpl21typed_base_any_policyIjE8get_sizeEv
	.type	_ZN7cvflann7anyimpl21typed_base_any_policyIjE8get_sizeEv, %function
_ZN7cvflann7anyimpl21typed_base_any_policyIjE8get_sizeEv:
.LFB15058:
	.loc 1 57 0
	.cfi_startproc
.LVL20:
	.loc 1 57 0
	mov	x0, 4
.LVL21:
	ret
	.cfi_endproc
.LFE15058:
	.size	_ZN7cvflann7anyimpl21typed_base_any_policyIjE8get_sizeEv, .-_ZN7cvflann7anyimpl21typed_base_any_policyIjE8get_sizeEv
	.section	.text._ZN7cvflann7anyimpl21typed_base_any_policyIjE4typeEv,"axG",@progbits,_ZN7cvflann7anyimpl21typed_base_any_policyIjE4typeEv,comdat
	.align	2
	.p2align 3,,7
	.weak	_ZN7cvflann7anyimpl21typed_base_any_policyIjE4typeEv
	.type	_ZN7cvflann7anyimpl21typed_base_any_policyIjE4typeEv, %function
_ZN7cvflann7anyimpl21typed_base_any_policyIjE4typeEv:
.LFB15059:
	.loc 1 58 0
	.cfi_startproc
.LVL22:
	.loc 1 58 0
	adrp	x0, :got:_ZTIj
.LVL23:
	ldr	x0, [x0, #:got_lo12:_ZTIj]
	ret
	.cfi_endproc
.LFE15059:
	.size	_ZN7cvflann7anyimpl21typed_base_any_policyIjE4typeEv, .-_ZN7cvflann7anyimpl21typed_base_any_policyIjE4typeEv
	.section	.text._ZN7cvflann7anyimpl16small_any_policyIbE13static_deleteEPPv,"axG",@progbits,_ZN7cvflann7anyimpl16small_any_policyIbE13static_deleteEPPv,comdat
	.align	2
	.p2align 3,,7
	.weak	_ZN7cvflann7anyimpl16small_any_policyIbE13static_deleteEPPv
	.type	_ZN7cvflann7anyimpl16small_any_policyIbE13static_deleteEPPv, %function
_ZN7cvflann7anyimpl16small_any_policyIbE13static_deleteEPPv:
.LFB15061:
	.loc 1 65 0
	.cfi_startproc
.LVL24:
	.loc 1 65 0
	ret
	.cfi_endproc
.LFE15061:
	.size	_ZN7cvflann7anyimpl16small_any_policyIbE13static_deleteEPPv, .-_ZN7cvflann7anyimpl16small_any_policyIbE13static_deleteEPPv
	.section	.text._ZN7cvflann7anyimpl16small_any_policyIbE15copy_from_valueEPKvPPv,"axG",@progbits,_ZN7cvflann7anyimpl16small_any_policyIbE15copy_from_valueEPKvPPv,comdat
	.align	2
	.p2align 3,,7
	.weak	_ZN7cvflann7anyimpl16small_any_policyIbE15copy_from_valueEPKvPPv
	.type	_ZN7cvflann7anyimpl16small_any_policyIbE15copy_from_valueEPKvPPv, %function
_ZN7cvflann7anyimpl16small_any_policyIbE15copy_from_valueEPKvPPv:
.LFB15062:
	.loc 1 66 0
	.cfi_startproc
.LVL25:
	.loc 1 68 0
	cbz	x2, .L24
	ldrb	w0, [x1]
.LVL26:
	strb	w0, [x2]
.L24:
	.loc 1 69 0
	ret
	.cfi_endproc
.LFE15062:
	.size	_ZN7cvflann7anyimpl16small_any_policyIbE15copy_from_valueEPKvPPv, .-_ZN7cvflann7anyimpl16small_any_policyIbE15copy_from_valueEPKvPPv
	.section	.text._ZN7cvflann7anyimpl16small_any_policyIbE5cloneEPKPvPS3_,"axG",@progbits,_ZN7cvflann7anyimpl16small_any_policyIbE5cloneEPKPvPS3_,comdat
	.align	2
	.p2align 3,,7
	.weak	_ZN7cvflann7anyimpl16small_any_policyIbE5cloneEPKPvPS3_
	.type	_ZN7cvflann7anyimpl16small_any_policyIbE5cloneEPKPvPS3_, %function
_ZN7cvflann7anyimpl16small_any_policyIbE5cloneEPKPvPS3_:
.LFB15063:
	.loc 1 70 0
	.cfi_startproc
.LVL27:
	.loc 1 70 0
	ldr	x0, [x1]
.LVL28:
	str	x0, [x2]
	ret
	.cfi_endproc
.LFE15063:
	.size	_ZN7cvflann7anyimpl16small_any_policyIbE5cloneEPKPvPS3_, .-_ZN7cvflann7anyimpl16small_any_policyIbE5cloneEPKPvPS3_
	.section	.text._ZN7cvflann7anyimpl16small_any_policyIbE4moveEPKPvPS3_,"axG",@progbits,_ZN7cvflann7anyimpl16small_any_policyIbE4moveEPKPvPS3_,comdat
	.align	2
	.p2align 3,,7
	.weak	_ZN7cvflann7anyimpl16small_any_policyIbE4moveEPKPvPS3_
	.type	_ZN7cvflann7anyimpl16small_any_policyIbE4moveEPKPvPS3_, %function
_ZN7cvflann7anyimpl16small_any_policyIbE4moveEPKPvPS3_:
.LFB15064:
	.loc 1 71 0
	.cfi_startproc
.LVL29:
	.loc 1 71 0
	ldr	x0, [x1]
.LVL30:
	str	x0, [x2]
	ret
	.cfi_endproc
.LFE15064:
	.size	_ZN7cvflann7anyimpl16small_any_policyIbE4moveEPKPvPS3_, .-_ZN7cvflann7anyimpl16small_any_policyIbE4moveEPKPvPS3_
	.section	.text._ZN7cvflann7anyimpl16small_any_policyIbE9get_valueEPPv,"axG",@progbits,_ZN7cvflann7anyimpl16small_any_policyIbE9get_valueEPPv,comdat
	.align	2
	.p2align 3,,7
	.weak	_ZN7cvflann7anyimpl16small_any_policyIbE9get_valueEPPv
	.type	_ZN7cvflann7anyimpl16small_any_policyIbE9get_valueEPPv, %function
_ZN7cvflann7anyimpl16small_any_policyIbE9get_valueEPPv:
.LFB15065:
	.loc 1 72 0
	.cfi_startproc
.LVL31:
	.loc 1 72 0
	mov	x0, x1
.LVL32:
	ret
	.cfi_endproc
.LFE15065:
	.size	_ZN7cvflann7anyimpl16small_any_policyIbE9get_valueEPPv, .-_ZN7cvflann7anyimpl16small_any_policyIbE9get_valueEPPv
	.section	.text._ZN7cvflann7anyimpl16small_any_policyIbE9get_valueEPKPv,"axG",@progbits,_ZN7cvflann7anyimpl16small_any_policyIbE9get_valueEPKPv,comdat
	.align	2
	.p2align 3,,7
	.weak	_ZN7cvflann7anyimpl16small_any_policyIbE9get_valueEPKPv
	.type	_ZN7cvflann7anyimpl16small_any_policyIbE9get_valueEPKPv, %function
_ZN7cvflann7anyimpl16small_any_policyIbE9get_valueEPKPv:
.LFB15066:
	.loc 1 73 0
	.cfi_startproc
.LVL33:
	.loc 1 73 0
	mov	x0, x1
.LVL34:
	ret
	.cfi_endproc
.LFE15066:
	.size	_ZN7cvflann7anyimpl16small_any_policyIbE9get_valueEPKPv, .-_ZN7cvflann7anyimpl16small_any_policyIbE9get_valueEPKPv
	.section	.text._ZN7cvflann7anyimpl21typed_base_any_policyIbE8get_sizeEv,"axG",@progbits,_ZN7cvflann7anyimpl21typed_base_any_policyIbE8get_sizeEv,comdat
	.align	2
	.p2align 3,,7
	.weak	_ZN7cvflann7anyimpl21typed_base_any_policyIbE8get_sizeEv
	.type	_ZN7cvflann7anyimpl21typed_base_any_policyIbE8get_sizeEv, %function
_ZN7cvflann7anyimpl21typed_base_any_policyIbE8get_sizeEv:
.LFB15067:
	.loc 1 57 0
	.cfi_startproc
.LVL35:
	.loc 1 57 0
	mov	x0, 1
.LVL36:
	ret
	.cfi_endproc
.LFE15067:
	.size	_ZN7cvflann7anyimpl21typed_base_any_policyIbE8get_sizeEv, .-_ZN7cvflann7anyimpl21typed_base_any_policyIbE8get_sizeEv
	.section	.text._ZN7cvflann7anyimpl21typed_base_any_policyIbE4typeEv,"axG",@progbits,_ZN7cvflann7anyimpl21typed_base_any_policyIbE4typeEv,comdat
	.align	2
	.p2align 3,,7
	.weak	_ZN7cvflann7anyimpl21typed_base_any_policyIbE4typeEv
	.type	_ZN7cvflann7anyimpl21typed_base_any_policyIbE4typeEv, %function
_ZN7cvflann7anyimpl21typed_base_any_policyIbE4typeEv:
.LFB15068:
	.loc 1 58 0
	.cfi_startproc
.LVL37:
	.loc 1 58 0
	adrp	x0, :got:_ZTIb
.LVL38:
	ldr	x0, [x0, #:got_lo12:_ZTIb]
	ret
	.cfi_endproc
.LFE15068:
	.size	_ZN7cvflann7anyimpl21typed_base_any_policyIbE4typeEv, .-_ZN7cvflann7anyimpl21typed_base_any_policyIbE4typeEv
	.section	.text._ZN7cvflann7anyimpl16small_any_policyIfE13static_deleteEPPv,"axG",@progbits,_ZN7cvflann7anyimpl16small_any_policyIfE13static_deleteEPPv,comdat
	.align	2
	.p2align 3,,7
	.weak	_ZN7cvflann7anyimpl16small_any_policyIfE13static_deleteEPPv
	.type	_ZN7cvflann7anyimpl16small_any_policyIfE13static_deleteEPPv, %function
_ZN7cvflann7anyimpl16small_any_policyIfE13static_deleteEPPv:
.LFB15070:
	.loc 1 65 0
	.cfi_startproc
.LVL39:
	.loc 1 65 0
	ret
	.cfi_endproc
.LFE15070:
	.size	_ZN7cvflann7anyimpl16small_any_policyIfE13static_deleteEPPv, .-_ZN7cvflann7anyimpl16small_any_policyIfE13static_deleteEPPv
	.section	.text._ZN7cvflann7anyimpl16small_any_policyIfE15copy_from_valueEPKvPPv,"axG",@progbits,_ZN7cvflann7anyimpl16small_any_policyIfE15copy_from_valueEPKvPPv,comdat
	.align	2
	.p2align 3,,7
	.weak	_ZN7cvflann7anyimpl16small_any_policyIfE15copy_from_valueEPKvPPv
	.type	_ZN7cvflann7anyimpl16small_any_policyIfE15copy_from_valueEPKvPPv, %function
_ZN7cvflann7anyimpl16small_any_policyIfE15copy_from_valueEPKvPPv:
.LFB15071:
	.loc 1 66 0
	.cfi_startproc
.LVL40:
	.loc 1 68 0
	cbz	x2, .L36
	ldr	s0, [x1]
	str	s0, [x2]
.L36:
	.loc 1 69 0
	ret
	.cfi_endproc
.LFE15071:
	.size	_ZN7cvflann7anyimpl16small_any_policyIfE15copy_from_valueEPKvPPv, .-_ZN7cvflann7anyimpl16small_any_policyIfE15copy_from_valueEPKvPPv
	.section	.text._ZN7cvflann7anyimpl16small_any_policyIfE5cloneEPKPvPS3_,"axG",@progbits,_ZN7cvflann7anyimpl16small_any_policyIfE5cloneEPKPvPS3_,comdat
	.align	2
	.p2align 3,,7
	.weak	_ZN7cvflann7anyimpl16small_any_policyIfE5cloneEPKPvPS3_
	.type	_ZN7cvflann7anyimpl16small_any_policyIfE5cloneEPKPvPS3_, %function
_ZN7cvflann7anyimpl16small_any_policyIfE5cloneEPKPvPS3_:
.LFB15072:
	.loc 1 70 0
	.cfi_startproc
.LVL41:
	.loc 1 70 0
	ldr	x0, [x1]
.LVL42:
	str	x0, [x2]
	ret
	.cfi_endproc
.LFE15072:
	.size	_ZN7cvflann7anyimpl16small_any_policyIfE5cloneEPKPvPS3_, .-_ZN7cvflann7anyimpl16small_any_policyIfE5cloneEPKPvPS3_
	.section	.text._ZN7cvflann7anyimpl16small_any_policyIfE4moveEPKPvPS3_,"axG",@progbits,_ZN7cvflann7anyimpl16small_any_policyIfE4moveEPKPvPS3_,comdat
	.align	2
	.p2align 3,,7
	.weak	_ZN7cvflann7anyimpl16small_any_policyIfE4moveEPKPvPS3_
	.type	_ZN7cvflann7anyimpl16small_any_policyIfE4moveEPKPvPS3_, %function
_ZN7cvflann7anyimpl16small_any_policyIfE4moveEPKPvPS3_:
.LFB15073:
	.loc 1 71 0
	.cfi_startproc
.LVL43:
	.loc 1 71 0
	ldr	x0, [x1]
.LVL44:
	str	x0, [x2]
	ret
	.cfi_endproc
.LFE15073:
	.size	_ZN7cvflann7anyimpl16small_any_policyIfE4moveEPKPvPS3_, .-_ZN7cvflann7anyimpl16small_any_policyIfE4moveEPKPvPS3_
	.section	.text._ZN7cvflann7anyimpl16small_any_policyIfE9get_valueEPPv,"axG",@progbits,_ZN7cvflann7anyimpl16small_any_policyIfE9get_valueEPPv,comdat
	.align	2
	.p2align 3,,7
	.weak	_ZN7cvflann7anyimpl16small_any_policyIfE9get_valueEPPv
	.type	_ZN7cvflann7anyimpl16small_any_policyIfE9get_valueEPPv, %function
_ZN7cvflann7anyimpl16small_any_policyIfE9get_valueEPPv:
.LFB15074:
	.loc 1 72 0
	.cfi_startproc
.LVL45:
	.loc 1 72 0
	mov	x0, x1
.LVL46:
	ret
	.cfi_endproc
.LFE15074:
	.size	_ZN7cvflann7anyimpl16small_any_policyIfE9get_valueEPPv, .-_ZN7cvflann7anyimpl16small_any_policyIfE9get_valueEPPv
	.section	.text._ZN7cvflann7anyimpl16small_any_policyIfE9get_valueEPKPv,"axG",@progbits,_ZN7cvflann7anyimpl16small_any_policyIfE9get_valueEPKPv,comdat
	.align	2
	.p2align 3,,7
	.weak	_ZN7cvflann7anyimpl16small_any_policyIfE9get_valueEPKPv
	.type	_ZN7cvflann7anyimpl16small_any_policyIfE9get_valueEPKPv, %function
_ZN7cvflann7anyimpl16small_any_policyIfE9get_valueEPKPv:
.LFB15075:
	.loc 1 73 0
	.cfi_startproc
.LVL47:
	.loc 1 73 0
	mov	x0, x1
.LVL48:
	ret
	.cfi_endproc
.LFE15075:
	.size	_ZN7cvflann7anyimpl16small_any_policyIfE9get_valueEPKPv, .-_ZN7cvflann7anyimpl16small_any_policyIfE9get_valueEPKPv
	.section	.text._ZN7cvflann7anyimpl21typed_base_any_policyIfE8get_sizeEv,"axG",@progbits,_ZN7cvflann7anyimpl21typed_base_any_policyIfE8get_sizeEv,comdat
	.align	2
	.p2align 3,,7
	.weak	_ZN7cvflann7anyimpl21typed_base_any_policyIfE8get_sizeEv
	.type	_ZN7cvflann7anyimpl21typed_base_any_policyIfE8get_sizeEv, %function
_ZN7cvflann7anyimpl21typed_base_any_policyIfE8get_sizeEv:
.LFB15076:
	.loc 1 57 0
	.cfi_startproc
.LVL49:
	.loc 1 57 0
	mov	x0, 4
.LVL50:
	ret
	.cfi_endproc
.LFE15076:
	.size	_ZN7cvflann7anyimpl21typed_base_any_policyIfE8get_sizeEv, .-_ZN7cvflann7anyimpl21typed_base_any_policyIfE8get_sizeEv
	.section	.text._ZN7cvflann7anyimpl21typed_base_any_policyIfE4typeEv,"axG",@progbits,_ZN7cvflann7anyimpl21typed_base_any_policyIfE4typeEv,comdat
	.align	2
	.p2align 3,,7
	.weak	_ZN7cvflann7anyimpl21typed_base_any_policyIfE4typeEv
	.type	_ZN7cvflann7anyimpl21typed_base_any_policyIfE4typeEv, %function
_ZN7cvflann7anyimpl21typed_base_any_policyIfE4typeEv:
.LFB15077:
	.loc 1 58 0
	.cfi_startproc
.LVL51:
	.loc 1 58 0
	adrp	x0, :got:_ZTIf
.LVL52:
	ldr	x0, [x0, #:got_lo12:_ZTIf]
	ret
	.cfi_endproc
.LFE15077:
	.size	_ZN7cvflann7anyimpl21typed_base_any_policyIfE4typeEv, .-_ZN7cvflann7anyimpl21typed_base_any_policyIfE4typeEv
	.section	.text._ZN7cvflann7anyimpl16small_any_policyIiE13static_deleteEPPv,"axG",@progbits,_ZN7cvflann7anyimpl16small_any_policyIiE13static_deleteEPPv,comdat
	.align	2
	.p2align 3,,7
	.weak	_ZN7cvflann7anyimpl16small_any_policyIiE13static_deleteEPPv
	.type	_ZN7cvflann7anyimpl16small_any_policyIiE13static_deleteEPPv, %function
_ZN7cvflann7anyimpl16small_any_policyIiE13static_deleteEPPv:
.LFB15079:
	.loc 1 65 0
	.cfi_startproc
.LVL53:
	.loc 1 65 0
	ret
	.cfi_endproc
.LFE15079:
	.size	_ZN7cvflann7anyimpl16small_any_policyIiE13static_deleteEPPv, .-_ZN7cvflann7anyimpl16small_any_policyIiE13static_deleteEPPv
	.section	.text._ZN7cvflann7anyimpl16small_any_policyIiE15copy_from_valueEPKvPPv,"axG",@progbits,_ZN7cvflann7anyimpl16small_any_policyIiE15copy_from_valueEPKvPPv,comdat
	.align	2
	.p2align 3,,7
	.weak	_ZN7cvflann7anyimpl16small_any_policyIiE15copy_from_valueEPKvPPv
	.type	_ZN7cvflann7anyimpl16small_any_policyIiE15copy_from_valueEPKvPPv, %function
_ZN7cvflann7anyimpl16small_any_policyIiE15copy_from_valueEPKvPPv:
.LFB15080:
	.loc 1 66 0
	.cfi_startproc
.LVL54:
	.loc 1 68 0
	cbz	x2, .L48
	ldr	w0, [x1]
.LVL55:
	str	w0, [x2]
.L48:
	.loc 1 69 0
	ret
	.cfi_endproc
.LFE15080:
	.size	_ZN7cvflann7anyimpl16small_any_policyIiE15copy_from_valueEPKvPPv, .-_ZN7cvflann7anyimpl16small_any_policyIiE15copy_from_valueEPKvPPv
	.section	.text._ZN7cvflann7anyimpl16small_any_policyIiE5cloneEPKPvPS3_,"axG",@progbits,_ZN7cvflann7anyimpl16small_any_policyIiE5cloneEPKPvPS3_,comdat
	.align	2
	.p2align 3,,7
	.weak	_ZN7cvflann7anyimpl16small_any_policyIiE5cloneEPKPvPS3_
	.type	_ZN7cvflann7anyimpl16small_any_policyIiE5cloneEPKPvPS3_, %function
_ZN7cvflann7anyimpl16small_any_policyIiE5cloneEPKPvPS3_:
.LFB15081:
	.loc 1 70 0
	.cfi_startproc
.LVL56:
	.loc 1 70 0
	ldr	x0, [x1]
.LVL57:
	str	x0, [x2]
	ret
	.cfi_endproc
.LFE15081:
	.size	_ZN7cvflann7anyimpl16small_any_policyIiE5cloneEPKPvPS3_, .-_ZN7cvflann7anyimpl16small_any_policyIiE5cloneEPKPvPS3_
	.section	.text._ZN7cvflann7anyimpl16small_any_policyIiE4moveEPKPvPS3_,"axG",@progbits,_ZN7cvflann7anyimpl16small_any_policyIiE4moveEPKPvPS3_,comdat
	.align	2
	.p2align 3,,7
	.weak	_ZN7cvflann7anyimpl16small_any_policyIiE4moveEPKPvPS3_
	.type	_ZN7cvflann7anyimpl16small_any_policyIiE4moveEPKPvPS3_, %function
_ZN7cvflann7anyimpl16small_any_policyIiE4moveEPKPvPS3_:
.LFB15082:
	.loc 1 71 0
	.cfi_startproc
.LVL58:
	.loc 1 71 0
	ldr	x0, [x1]
.LVL59:
	str	x0, [x2]
	ret
	.cfi_endproc
.LFE15082:
	.size	_ZN7cvflann7anyimpl16small_any_policyIiE4moveEPKPvPS3_, .-_ZN7cvflann7anyimpl16small_any_policyIiE4moveEPKPvPS3_
	.section	.text._ZN7cvflann7anyimpl16small_any_policyIiE9get_valueEPPv,"axG",@progbits,_ZN7cvflann7anyimpl16small_any_policyIiE9get_valueEPPv,comdat
	.align	2
	.p2align 3,,7
	.weak	_ZN7cvflann7anyimpl16small_any_policyIiE9get_valueEPPv
	.type	_ZN7cvflann7anyimpl16small_any_policyIiE9get_valueEPPv, %function
_ZN7cvflann7anyimpl16small_any_policyIiE9get_valueEPPv:
.LFB15083:
	.loc 1 72 0
	.cfi_startproc
.LVL60:
	.loc 1 72 0
	mov	x0, x1
.LVL61:
	ret
	.cfi_endproc
.LFE15083:
	.size	_ZN7cvflann7anyimpl16small_any_policyIiE9get_valueEPPv, .-_ZN7cvflann7anyimpl16small_any_policyIiE9get_valueEPPv
	.section	.text._ZN7cvflann7anyimpl16small_any_policyIiE9get_valueEPKPv,"axG",@progbits,_ZN7cvflann7anyimpl16small_any_policyIiE9get_valueEPKPv,comdat
	.align	2
	.p2align 3,,7
	.weak	_ZN7cvflann7anyimpl16small_any_policyIiE9get_valueEPKPv
	.type	_ZN7cvflann7anyimpl16small_any_policyIiE9get_valueEPKPv, %function
_ZN7cvflann7anyimpl16small_any_policyIiE9get_valueEPKPv:
.LFB15084:
	.loc 1 73 0
	.cfi_startproc
.LVL62:
	.loc 1 73 0
	mov	x0, x1
.LVL63:
	ret
	.cfi_endproc
.LFE15084:
	.size	_ZN7cvflann7anyimpl16small_any_policyIiE9get_valueEPKPv, .-_ZN7cvflann7anyimpl16small_any_policyIiE9get_valueEPKPv
	.section	.text._ZN7cvflann7anyimpl21typed_base_any_policyIiE8get_sizeEv,"axG",@progbits,_ZN7cvflann7anyimpl21typed_base_any_policyIiE8get_sizeEv,comdat
	.align	2
	.p2align 3,,7
	.weak	_ZN7cvflann7anyimpl21typed_base_any_policyIiE8get_sizeEv
	.type	_ZN7cvflann7anyimpl21typed_base_any_policyIiE8get_sizeEv, %function
_ZN7cvflann7anyimpl21typed_base_any_policyIiE8get_sizeEv:
.LFB15085:
	.loc 1 57 0
	.cfi_startproc
.LVL64:
	.loc 1 57 0
	mov	x0, 4
.LVL65:
	ret
	.cfi_endproc
.LFE15085:
	.size	_ZN7cvflann7anyimpl21typed_base_any_policyIiE8get_sizeEv, .-_ZN7cvflann7anyimpl21typed_base_any_policyIiE8get_sizeEv
	.section	.text._ZN7cvflann7anyimpl21typed_base_any_policyIiE4typeEv,"axG",@progbits,_ZN7cvflann7anyimpl21typed_base_any_policyIiE4typeEv,comdat
	.align	2
	.p2align 3,,7
	.weak	_ZN7cvflann7anyimpl21typed_base_any_policyIiE4typeEv
	.type	_ZN7cvflann7anyimpl21typed_base_any_policyIiE4typeEv, %function
_ZN7cvflann7anyimpl21typed_base_any_policyIiE4typeEv:
.LFB15086:
	.loc 1 58 0
	.cfi_startproc
.LVL66:
	.loc 1 58 0
	adrp	x0, :got:_ZTIi
.LVL67:
	ldr	x0, [x0, #:got_lo12:_ZTIi]
	ret
	.cfi_endproc
.LFE15086:
	.size	_ZN7cvflann7anyimpl21typed_base_any_policyIiE4typeEv, .-_ZN7cvflann7anyimpl21typed_base_any_policyIiE4typeEv
	.section	.text._ZN7cvflann7anyimpl16small_any_policyIPKcE13static_deleteEPPv,"axG",@progbits,_ZN7cvflann7anyimpl16small_any_policyIPKcE13static_deleteEPPv,comdat
	.align	2
	.p2align 3,,7
	.weak	_ZN7cvflann7anyimpl16small_any_policyIPKcE13static_deleteEPPv
	.type	_ZN7cvflann7anyimpl16small_any_policyIPKcE13static_deleteEPPv, %function
_ZN7cvflann7anyimpl16small_any_policyIPKcE13static_deleteEPPv:
.LFB15090:
	.loc 1 65 0
	.cfi_startproc
.LVL68:
	.loc 1 65 0
	ret
	.cfi_endproc
.LFE15090:
	.size	_ZN7cvflann7anyimpl16small_any_policyIPKcE13static_deleteEPPv, .-_ZN7cvflann7anyimpl16small_any_policyIPKcE13static_deleteEPPv
	.section	.text._ZN7cvflann7anyimpl16small_any_policyIPKcE15copy_from_valueEPKvPPv,"axG",@progbits,_ZN7cvflann7anyimpl16small_any_policyIPKcE15copy_from_valueEPKvPPv,comdat
	.align	2
	.p2align 3,,7
	.weak	_ZN7cvflann7anyimpl16small_any_policyIPKcE15copy_from_valueEPKvPPv
	.type	_ZN7cvflann7anyimpl16small_any_policyIPKcE15copy_from_valueEPKvPPv, %function
_ZN7cvflann7anyimpl16small_any_policyIPKcE15copy_from_valueEPKvPPv:
.LFB15091:
	.loc 1 66 0
	.cfi_startproc
.LVL69:
	.loc 1 68 0
	cbz	x2, .L60
	ldr	x0, [x1]
.LVL70:
	str	x0, [x2]
.L60:
	.loc 1 69 0
	ret
	.cfi_endproc
.LFE15091:
	.size	_ZN7cvflann7anyimpl16small_any_policyIPKcE15copy_from_valueEPKvPPv, .-_ZN7cvflann7anyimpl16small_any_policyIPKcE15copy_from_valueEPKvPPv
	.section	.text._ZN7cvflann7anyimpl16small_any_policyIPKcE5cloneEPKPvPS5_,"axG",@progbits,_ZN7cvflann7anyimpl16small_any_policyIPKcE5cloneEPKPvPS5_,comdat
	.align	2
	.p2align 3,,7
	.weak	_ZN7cvflann7anyimpl16small_any_policyIPKcE5cloneEPKPvPS5_
	.type	_ZN7cvflann7anyimpl16small_any_policyIPKcE5cloneEPKPvPS5_, %function
_ZN7cvflann7anyimpl16small_any_policyIPKcE5cloneEPKPvPS5_:
.LFB15092:
	.loc 1 70 0
	.cfi_startproc
.LVL71:
	.loc 1 70 0
	ldr	x0, [x1]
.LVL72:
	str	x0, [x2]
	ret
	.cfi_endproc
.LFE15092:
	.size	_ZN7cvflann7anyimpl16small_any_policyIPKcE5cloneEPKPvPS5_, .-_ZN7cvflann7anyimpl16small_any_policyIPKcE5cloneEPKPvPS5_
	.section	.text._ZN7cvflann7anyimpl16small_any_policyIPKcE4moveEPKPvPS5_,"axG",@progbits,_ZN7cvflann7anyimpl16small_any_policyIPKcE4moveEPKPvPS5_,comdat
	.align	2
	.p2align 3,,7
	.weak	_ZN7cvflann7anyimpl16small_any_policyIPKcE4moveEPKPvPS5_
	.type	_ZN7cvflann7anyimpl16small_any_policyIPKcE4moveEPKPvPS5_, %function
_ZN7cvflann7anyimpl16small_any_policyIPKcE4moveEPKPvPS5_:
.LFB15093:
	.loc 1 71 0
	.cfi_startproc
.LVL73:
	.loc 1 71 0
	ldr	x0, [x1]
.LVL74:
	str	x0, [x2]
	ret
	.cfi_endproc
.LFE15093:
	.size	_ZN7cvflann7anyimpl16small_any_policyIPKcE4moveEPKPvPS5_, .-_ZN7cvflann7anyimpl16small_any_policyIPKcE4moveEPKPvPS5_
	.section	.text._ZN7cvflann7anyimpl16small_any_policyIPKcE9get_valueEPPv,"axG",@progbits,_ZN7cvflann7anyimpl16small_any_policyIPKcE9get_valueEPPv,comdat
	.align	2
	.p2align 3,,7
	.weak	_ZN7cvflann7anyimpl16small_any_policyIPKcE9get_valueEPPv
	.type	_ZN7cvflann7anyimpl16small_any_policyIPKcE9get_valueEPPv, %function
_ZN7cvflann7anyimpl16small_any_policyIPKcE9get_valueEPPv:
.LFB15094:
	.loc 1 72 0
	.cfi_startproc
.LVL75:
	.loc 1 72 0
	mov	x0, x1
.LVL76:
	ret
	.cfi_endproc
.LFE15094:
	.size	_ZN7cvflann7anyimpl16small_any_policyIPKcE9get_valueEPPv, .-_ZN7cvflann7anyimpl16small_any_policyIPKcE9get_valueEPPv
	.section	.text._ZN7cvflann7anyimpl16small_any_policyIPKcE9get_valueEPKPv,"axG",@progbits,_ZN7cvflann7anyimpl16small_any_policyIPKcE9get_valueEPKPv,comdat
	.align	2
	.p2align 3,,7
	.weak	_ZN7cvflann7anyimpl16small_any_policyIPKcE9get_valueEPKPv
	.type	_ZN7cvflann7anyimpl16small_any_policyIPKcE9get_valueEPKPv, %function
_ZN7cvflann7anyimpl16small_any_policyIPKcE9get_valueEPKPv:
.LFB15095:
	.loc 1 73 0
	.cfi_startproc
.LVL77:
	.loc 1 73 0
	mov	x0, x1
.LVL78:
	ret
	.cfi_endproc
.LFE15095:
	.size	_ZN7cvflann7anyimpl16small_any_policyIPKcE9get_valueEPKPv, .-_ZN7cvflann7anyimpl16small_any_policyIPKcE9get_valueEPKPv
	.section	.text._ZN7cvflann7anyimpl21typed_base_any_policyIPKcE8get_sizeEv,"axG",@progbits,_ZN7cvflann7anyimpl21typed_base_any_policyIPKcE8get_sizeEv,comdat
	.align	2
	.p2align 3,,7
	.weak	_ZN7cvflann7anyimpl21typed_base_any_policyIPKcE8get_sizeEv
	.type	_ZN7cvflann7anyimpl21typed_base_any_policyIPKcE8get_sizeEv, %function
_ZN7cvflann7anyimpl21typed_base_any_policyIPKcE8get_sizeEv:
.LFB15096:
	.loc 1 57 0
	.cfi_startproc
.LVL79:
	.loc 1 57 0
	mov	x0, 8
.LVL80:
	ret
	.cfi_endproc
.LFE15096:
	.size	_ZN7cvflann7anyimpl21typed_base_any_policyIPKcE8get_sizeEv, .-_ZN7cvflann7anyimpl21typed_base_any_policyIPKcE8get_sizeEv
	.section	.text._ZN7cvflann7anyimpl21typed_base_any_policyIPKcE4typeEv,"axG",@progbits,_ZN7cvflann7anyimpl21typed_base_any_policyIPKcE4typeEv,comdat
	.align	2
	.p2align 3,,7
	.weak	_ZN7cvflann7anyimpl21typed_base_any_policyIPKcE4typeEv
	.type	_ZN7cvflann7anyimpl21typed_base_any_policyIPKcE4typeEv, %function
_ZN7cvflann7anyimpl21typed_base_any_policyIPKcE4typeEv:
.LFB15097:
	.loc 1 58 0
	.cfi_startproc
.LVL81:
	.loc 1 58 0
	adrp	x0, :got:_ZTIPKc
.LVL82:
	ldr	x0, [x0, #:got_lo12:_ZTIPKc]
	ret
	.cfi_endproc
.LFE15097:
	.size	_ZN7cvflann7anyimpl21typed_base_any_policyIPKcE4typeEv, .-_ZN7cvflann7anyimpl21typed_base_any_policyIPKcE4typeEv
	.section	.text._ZN7cvflann7anyimpl14big_any_policyINS0_9empty_anyEE4moveEPKPvPS4_,"axG",@progbits,_ZN7cvflann7anyimpl14big_any_policyINS0_9empty_anyEE4moveEPKPvPS4_,comdat
	.align	2
	.p2align 3,,7
	.weak	_ZN7cvflann7anyimpl14big_any_policyINS0_9empty_anyEE4moveEPKPvPS4_
	.type	_ZN7cvflann7anyimpl14big_any_policyINS0_9empty_anyEE4moveEPKPvPS4_, %function
_ZN7cvflann7anyimpl14big_any_policyINS0_9empty_anyEE4moveEPKPvPS4_:
.LFB15214:
	.loc 1 93 0
	.cfi_startproc
.LVL83:
	.loc 1 97 0
	ret
	.cfi_endproc
.LFE15214:
	.size	_ZN7cvflann7anyimpl14big_any_policyINS0_9empty_anyEE4moveEPKPvPS4_, .-_ZN7cvflann7anyimpl14big_any_policyINS0_9empty_anyEE4moveEPKPvPS4_
	.section	.text._ZN7cvflann7anyimpl14big_any_policyINS0_9empty_anyEE9get_valueEPPv,"axG",@progbits,_ZN7cvflann7anyimpl14big_any_policyINS0_9empty_anyEE9get_valueEPPv,comdat
	.align	2
	.p2align 3,,7
	.weak	_ZN7cvflann7anyimpl14big_any_policyINS0_9empty_anyEE9get_valueEPPv
	.type	_ZN7cvflann7anyimpl14big_any_policyINS0_9empty_anyEE9get_valueEPPv, %function
_ZN7cvflann7anyimpl14big_any_policyINS0_9empty_anyEE9get_valueEPPv:
.LFB15215:
	.loc 1 98 0
	.cfi_startproc
.LVL84:
	.loc 1 98 0
	ldr	x0, [x1]
.LVL85:
	ret
	.cfi_endproc
.LFE15215:
	.size	_ZN7cvflann7anyimpl14big_any_policyINS0_9empty_anyEE9get_valueEPPv, .-_ZN7cvflann7anyimpl14big_any_policyINS0_9empty_anyEE9get_valueEPPv
	.section	.text._ZN7cvflann7anyimpl14big_any_policyINS0_9empty_anyEE9get_valueEPKPv,"axG",@progbits,_ZN7cvflann7anyimpl14big_any_policyINS0_9empty_anyEE9get_valueEPKPv,comdat
	.align	2
	.p2align 3,,7
	.weak	_ZN7cvflann7anyimpl14big_any_policyINS0_9empty_anyEE9get_valueEPKPv
	.type	_ZN7cvflann7anyimpl14big_any_policyINS0_9empty_anyEE9get_valueEPKPv, %function
_ZN7cvflann7anyimpl14big_any_policyINS0_9empty_anyEE9get_valueEPKPv:
.LFB15216:
	.loc 1 99 0
	.cfi_startproc
.LVL86:
	.loc 1 99 0
	ldr	x0, [x1]
.LVL87:
	ret
	.cfi_endproc
.LFE15216:
	.size	_ZN7cvflann7anyimpl14big_any_policyINS0_9empty_anyEE9get_valueEPKPv, .-_ZN7cvflann7anyimpl14big_any_policyINS0_9empty_anyEE9get_valueEPKPv
	.section	.text._ZN7cvflann7anyimpl21typed_base_any_policyINS0_9empty_anyEE8get_sizeEv,"axG",@progbits,_ZN7cvflann7anyimpl21typed_base_any_policyINS0_9empty_anyEE8get_sizeEv,comdat
	.align	2
	.p2align 3,,7
	.weak	_ZN7cvflann7anyimpl21typed_base_any_policyINS0_9empty_anyEE8get_sizeEv
	.type	_ZN7cvflann7anyimpl21typed_base_any_policyINS0_9empty_anyEE8get_sizeEv, %function
_ZN7cvflann7anyimpl21typed_base_any_policyINS0_9empty_anyEE8get_sizeEv:
.LFB15217:
	.loc 1 57 0
	.cfi_startproc
.LVL88:
	.loc 1 57 0
	mov	x0, 1
.LVL89:
	ret
	.cfi_endproc
.LFE15217:
	.size	_ZN7cvflann7anyimpl21typed_base_any_policyINS0_9empty_anyEE8get_sizeEv, .-_ZN7cvflann7anyimpl21typed_base_any_policyINS0_9empty_anyEE8get_sizeEv
	.section	.text._ZN7cvflann7anyimpl21typed_base_any_policyINS0_9empty_anyEE4typeEv,"axG",@progbits,_ZN7cvflann7anyimpl21typed_base_any_policyINS0_9empty_anyEE4typeEv,comdat
	.align	2
	.p2align 3,,7
	.weak	_ZN7cvflann7anyimpl21typed_base_any_policyINS0_9empty_anyEE4typeEv
	.type	_ZN7cvflann7anyimpl21typed_base_any_policyINS0_9empty_anyEE4typeEv, %function
_ZN7cvflann7anyimpl21typed_base_any_policyINS0_9empty_anyEE4typeEv:
.LFB15218:
	.loc 1 58 0
	.cfi_startproc
.LVL90:
	.loc 1 58 0
	adrp	x0, _ZTIN7cvflann7anyimpl9empty_anyE
.LVL91:
	add	x0, x0, :lo12:_ZTIN7cvflann7anyimpl9empty_anyE
	ret
	.cfi_endproc
.LFE15218:
	.size	_ZN7cvflann7anyimpl21typed_base_any_policyINS0_9empty_anyEE4typeEv, .-_ZN7cvflann7anyimpl21typed_base_any_policyINS0_9empty_anyEE4typeEv
	.section	.text._ZN7cvflann7anyimpl14big_any_policyIN2cv6StringEE9get_valueEPPv,"axG",@progbits,_ZN7cvflann7anyimpl14big_any_policyIN2cv6StringEE9get_valueEPPv,comdat
	.align	2
	.p2align 3,,7
	.weak	_ZN7cvflann7anyimpl14big_any_policyIN2cv6StringEE9get_valueEPPv
	.type	_ZN7cvflann7anyimpl14big_any_policyIN2cv6StringEE9get_valueEPPv, %function
_ZN7cvflann7anyimpl14big_any_policyIN2cv6StringEE9get_valueEPPv:
.LFB15224:
	.loc 1 98 0
	.cfi_startproc
.LVL92:
	.loc 1 98 0
	ldr	x0, [x1]
.LVL93:
	ret
	.cfi_endproc
.LFE15224:
	.size	_ZN7cvflann7anyimpl14big_any_policyIN2cv6StringEE9get_valueEPPv, .-_ZN7cvflann7anyimpl14big_any_policyIN2cv6StringEE9get_valueEPPv
	.section	.text._ZN7cvflann7anyimpl14big_any_policyIN2cv6StringEE9get_valueEPKPv,"axG",@progbits,_ZN7cvflann7anyimpl14big_any_policyIN2cv6StringEE9get_valueEPKPv,comdat
	.align	2
	.p2align 3,,7
	.weak	_ZN7cvflann7anyimpl14big_any_policyIN2cv6StringEE9get_valueEPKPv
	.type	_ZN7cvflann7anyimpl14big_any_policyIN2cv6StringEE9get_valueEPKPv, %function
_ZN7cvflann7anyimpl14big_any_policyIN2cv6StringEE9get_valueEPKPv:
.LFB15225:
	.loc 1 99 0
	.cfi_startproc
.LVL94:
	.loc 1 99 0
	ldr	x0, [x1]
.LVL95:
	ret
	.cfi_endproc
.LFE15225:
	.size	_ZN7cvflann7anyimpl14big_any_policyIN2cv6StringEE9get_valueEPKPv, .-_ZN7cvflann7anyimpl14big_any_policyIN2cv6StringEE9get_valueEPKPv
	.section	.text._ZN7cvflann7anyimpl21typed_base_any_policyIN2cv6StringEE8get_sizeEv,"axG",@progbits,_ZN7cvflann7anyimpl21typed_base_any_policyIN2cv6StringEE8get_sizeEv,comdat
	.align	2
	.p2align 3,,7
	.weak	_ZN7cvflann7anyimpl21typed_base_any_policyIN2cv6StringEE8get_sizeEv
	.type	_ZN7cvflann7anyimpl21typed_base_any_policyIN2cv6StringEE8get_sizeEv, %function
_ZN7cvflann7anyimpl21typed_base_any_policyIN2cv6StringEE8get_sizeEv:
.LFB15226:
	.loc 1 57 0
	.cfi_startproc
.LVL96:
	.loc 1 57 0
	mov	x0, 16
.LVL97:
	ret
	.cfi_endproc
.LFE15226:
	.size	_ZN7cvflann7anyimpl21typed_base_any_policyIN2cv6StringEE8get_sizeEv, .-_ZN7cvflann7anyimpl21typed_base_any_policyIN2cv6StringEE8get_sizeEv
	.section	.text._ZN7cvflann7anyimpl21typed_base_any_policyIN2cv6StringEE4typeEv,"axG",@progbits,_ZN7cvflann7anyimpl21typed_base_any_policyIN2cv6StringEE4typeEv,comdat
	.align	2
	.p2align 3,,7
	.weak	_ZN7cvflann7anyimpl21typed_base_any_policyIN2cv6StringEE4typeEv
	.type	_ZN7cvflann7anyimpl21typed_base_any_policyIN2cv6StringEE4typeEv, %function
_ZN7cvflann7anyimpl21typed_base_any_policyIN2cv6StringEE4typeEv:
.LFB15227:
	.loc 1 58 0
	.cfi_startproc
.LVL98:
	.loc 1 58 0
	adrp	x0, _ZTIN2cv6StringE
.LVL99:
	add	x0, x0, :lo12:_ZTIN2cv6StringE
	ret
	.cfi_endproc
.LFE15227:
	.size	_ZN7cvflann7anyimpl21typed_base_any_policyIN2cv6StringEE4typeEv, .-_ZN7cvflann7anyimpl21typed_base_any_policyIN2cv6StringEE4typeEv
	.section	.text._ZN7cvflann7anyimpl14big_any_policyINS_17flann_algorithm_tEE4moveEPKPvPS4_,"axG",@progbits,_ZN7cvflann7anyimpl14big_any_policyINS_17flann_algorithm_tEE4moveEPKPvPS4_,comdat
	.align	2
	.p2align 3,,7
	.weak	_ZN7cvflann7anyimpl14big_any_policyINS_17flann_algorithm_tEE4moveEPKPvPS4_
	.type	_ZN7cvflann7anyimpl14big_any_policyINS_17flann_algorithm_tEE4moveEPKPvPS4_, %function
_ZN7cvflann7anyimpl14big_any_policyINS_17flann_algorithm_tEE4moveEPKPvPS4_:
.LFB15231:
	.loc 1 93 0
	.cfi_startproc
.LVL100:
	.loc 1 96 0
	ldr	x1, [x1]
.LVL101:
	ldr	x0, [x2]
.LVL102:
	ldr	w1, [x1]
	str	w1, [x0]
	.loc 1 97 0
	ret
	.cfi_endproc
.LFE15231:
	.size	_ZN7cvflann7anyimpl14big_any_policyINS_17flann_algorithm_tEE4moveEPKPvPS4_, .-_ZN7cvflann7anyimpl14big_any_policyINS_17flann_algorithm_tEE4moveEPKPvPS4_
	.section	.text._ZN7cvflann7anyimpl14big_any_policyINS_17flann_algorithm_tEE9get_valueEPPv,"axG",@progbits,_ZN7cvflann7anyimpl14big_any_policyINS_17flann_algorithm_tEE9get_valueEPPv,comdat
	.align	2
	.p2align 3,,7
	.weak	_ZN7cvflann7anyimpl14big_any_policyINS_17flann_algorithm_tEE9get_valueEPPv
	.type	_ZN7cvflann7anyimpl14big_any_policyINS_17flann_algorithm_tEE9get_valueEPPv, %function
_ZN7cvflann7anyimpl14big_any_policyINS_17flann_algorithm_tEE9get_valueEPPv:
.LFB15232:
	.loc 1 98 0
	.cfi_startproc
.LVL103:
	.loc 1 98 0
	ldr	x0, [x1]
.LVL104:
	ret
	.cfi_endproc
.LFE15232:
	.size	_ZN7cvflann7anyimpl14big_any_policyINS_17flann_algorithm_tEE9get_valueEPPv, .-_ZN7cvflann7anyimpl14big_any_policyINS_17flann_algorithm_tEE9get_valueEPPv
	.section	.text._ZN7cvflann7anyimpl14big_any_policyINS_17flann_algorithm_tEE9get_valueEPKPv,"axG",@progbits,_ZN7cvflann7anyimpl14big_any_policyINS_17flann_algorithm_tEE9get_valueEPKPv,comdat
	.align	2
	.p2align 3,,7
	.weak	_ZN7cvflann7anyimpl14big_any_policyINS_17flann_algorithm_tEE9get_valueEPKPv
	.type	_ZN7cvflann7anyimpl14big_any_policyINS_17flann_algorithm_tEE9get_valueEPKPv, %function
_ZN7cvflann7anyimpl14big_any_policyINS_17flann_algorithm_tEE9get_valueEPKPv:
.LFB15233:
	.loc 1 99 0
	.cfi_startproc
.LVL105:
	.loc 1 99 0
	ldr	x0, [x1]
.LVL106:
	ret
	.cfi_endproc
.LFE15233:
	.size	_ZN7cvflann7anyimpl14big_any_policyINS_17flann_algorithm_tEE9get_valueEPKPv, .-_ZN7cvflann7anyimpl14big_any_policyINS_17flann_algorithm_tEE9get_valueEPKPv
	.section	.text._ZN7cvflann7anyimpl21typed_base_any_policyINS_17flann_algorithm_tEE8get_sizeEv,"axG",@progbits,_ZN7cvflann7anyimpl21typed_base_any_policyINS_17flann_algorithm_tEE8get_sizeEv,comdat
	.align	2
	.p2align 3,,7
	.weak	_ZN7cvflann7anyimpl21typed_base_any_policyINS_17flann_algorithm_tEE8get_sizeEv
	.type	_ZN7cvflann7anyimpl21typed_base_any_policyINS_17flann_algorithm_tEE8get_sizeEv, %function
_ZN7cvflann7anyimpl21typed_base_any_policyINS_17flann_algorithm_tEE8get_sizeEv:
.LFB15234:
	.loc 1 57 0
	.cfi_startproc
.LVL107:
	.loc 1 57 0
	mov	x0, 4
.LVL108:
	ret
	.cfi_endproc
.LFE15234:
	.size	_ZN7cvflann7anyimpl21typed_base_any_policyINS_17flann_algorithm_tEE8get_sizeEv, .-_ZN7cvflann7anyimpl21typed_base_any_policyINS_17flann_algorithm_tEE8get_sizeEv
	.section	.text._ZN7cvflann7anyimpl21typed_base_any_policyINS_17flann_algorithm_tEE4typeEv,"axG",@progbits,_ZN7cvflann7anyimpl21typed_base_any_policyINS_17flann_algorithm_tEE4typeEv,comdat
	.align	2
	.p2align 3,,7
	.weak	_ZN7cvflann7anyimpl21typed_base_any_policyINS_17flann_algorithm_tEE4typeEv
	.type	_ZN7cvflann7anyimpl21typed_base_any_policyINS_17flann_algorithm_tEE4typeEv, %function
_ZN7cvflann7anyimpl21typed_base_any_policyINS_17flann_algorithm_tEE4typeEv:
.LFB15235:
	.loc 1 58 0
	.cfi_startproc
.LVL109:
	.loc 1 58 0
	adrp	x0, _ZTIN7cvflann17flann_algorithm_tE
.LVL110:
	add	x0, x0, :lo12:_ZTIN7cvflann17flann_algorithm_tE
	ret
	.cfi_endproc
.LFE15235:
	.size	_ZN7cvflann7anyimpl21typed_base_any_policyINS_17flann_algorithm_tEE4typeEv, .-_ZN7cvflann7anyimpl21typed_base_any_policyINS_17flann_algorithm_tEE4typeEv
	.section	.text._ZN7cvflann7anyimpl14big_any_policyINS_20flann_centers_init_tEE4moveEPKPvPS4_,"axG",@progbits,_ZN7cvflann7anyimpl14big_any_policyINS_20flann_centers_init_tEE4moveEPKPvPS4_,comdat
	.align	2
	.p2align 3,,7
	.weak	_ZN7cvflann7anyimpl14big_any_policyINS_20flann_centers_init_tEE4moveEPKPvPS4_
	.type	_ZN7cvflann7anyimpl14big_any_policyINS_20flann_centers_init_tEE4moveEPKPvPS4_, %function
_ZN7cvflann7anyimpl14big_any_policyINS_20flann_centers_init_tEE4moveEPKPvPS4_:
.LFB15239:
	.loc 1 93 0
	.cfi_startproc
.LVL111:
	.loc 1 96 0
	ldr	x1, [x1]
.LVL112:
	ldr	x0, [x2]
.LVL113:
	ldr	w1, [x1]
	str	w1, [x0]
	.loc 1 97 0
	ret
	.cfi_endproc
.LFE15239:
	.size	_ZN7cvflann7anyimpl14big_any_policyINS_20flann_centers_init_tEE4moveEPKPvPS4_, .-_ZN7cvflann7anyimpl14big_any_policyINS_20flann_centers_init_tEE4moveEPKPvPS4_
	.section	.text._ZN7cvflann7anyimpl14big_any_policyINS_20flann_centers_init_tEE9get_valueEPPv,"axG",@progbits,_ZN7cvflann7anyimpl14big_any_policyINS_20flann_centers_init_tEE9get_valueEPPv,comdat
	.align	2
	.p2align 3,,7
	.weak	_ZN7cvflann7anyimpl14big_any_policyINS_20flann_centers_init_tEE9get_valueEPPv
	.type	_ZN7cvflann7anyimpl14big_any_policyINS_20flann_centers_init_tEE9get_valueEPPv, %function
_ZN7cvflann7anyimpl14big_any_policyINS_20flann_centers_init_tEE9get_valueEPPv:
.LFB15240:
	.loc 1 98 0
	.cfi_startproc
.LVL114:
	.loc 1 98 0
	ldr	x0, [x1]
.LVL115:
	ret
	.cfi_endproc
.LFE15240:
	.size	_ZN7cvflann7anyimpl14big_any_policyINS_20flann_centers_init_tEE9get_valueEPPv, .-_ZN7cvflann7anyimpl14big_any_policyINS_20flann_centers_init_tEE9get_valueEPPv
	.section	.text._ZN7cvflann7anyimpl14big_any_policyINS_20flann_centers_init_tEE9get_valueEPKPv,"axG",@progbits,_ZN7cvflann7anyimpl14big_any_policyINS_20flann_centers_init_tEE9get_valueEPKPv,comdat
	.align	2
	.p2align 3,,7
	.weak	_ZN7cvflann7anyimpl14big_any_policyINS_20flann_centers_init_tEE9get_valueEPKPv
	.type	_ZN7cvflann7anyimpl14big_any_policyINS_20flann_centers_init_tEE9get_valueEPKPv, %function
_ZN7cvflann7anyimpl14big_any_policyINS_20flann_centers_init_tEE9get_valueEPKPv:
.LFB15241:
	.loc 1 99 0
	.cfi_startproc
.LVL116:
	.loc 1 99 0
	ldr	x0, [x1]
.LVL117:
	ret
	.cfi_endproc
.LFE15241:
	.size	_ZN7cvflann7anyimpl14big_any_policyINS_20flann_centers_init_tEE9get_valueEPKPv, .-_ZN7cvflann7anyimpl14big_any_policyINS_20flann_centers_init_tEE9get_valueEPKPv
	.section	.text._ZN7cvflann7anyimpl21typed_base_any_policyINS_20flann_centers_init_tEE8get_sizeEv,"axG",@progbits,_ZN7cvflann7anyimpl21typed_base_any_policyINS_20flann_centers_init_tEE8get_sizeEv,comdat
	.align	2
	.p2align 3,,7
	.weak	_ZN7cvflann7anyimpl21typed_base_any_policyINS_20flann_centers_init_tEE8get_sizeEv
	.type	_ZN7cvflann7anyimpl21typed_base_any_policyINS_20flann_centers_init_tEE8get_sizeEv, %function
_ZN7cvflann7anyimpl21typed_base_any_policyINS_20flann_centers_init_tEE8get_sizeEv:
.LFB15242:
	.loc 1 57 0
	.cfi_startproc
.LVL118:
	.loc 1 57 0
	mov	x0, 4
.LVL119:
	ret
	.cfi_endproc
.LFE15242:
	.size	_ZN7cvflann7anyimpl21typed_base_any_policyINS_20flann_centers_init_tEE8get_sizeEv, .-_ZN7cvflann7anyimpl21typed_base_any_policyINS_20flann_centers_init_tEE8get_sizeEv
	.section	.text._ZN7cvflann7anyimpl21typed_base_any_policyINS_20flann_centers_init_tEE4typeEv,"axG",@progbits,_ZN7cvflann7anyimpl21typed_base_any_policyINS_20flann_centers_init_tEE4typeEv,comdat
	.align	2
	.p2align 3,,7
	.weak	_ZN7cvflann7anyimpl21typed_base_any_policyINS_20flann_centers_init_tEE4typeEv
	.type	_ZN7cvflann7anyimpl21typed_base_any_policyINS_20flann_centers_init_tEE4typeEv, %function
_ZN7cvflann7anyimpl21typed_base_any_policyINS_20flann_centers_init_tEE4typeEv:
.LFB15243:
	.loc 1 58 0
	.cfi_startproc
.LVL120:
	.loc 1 58 0
	adrp	x0, _ZTIN7cvflann20flann_centers_init_tE
.LVL121:
	add	x0, x0, :lo12:_ZTIN7cvflann20flann_centers_init_tE
	ret
	.cfi_endproc
.LFE15243:
	.size	_ZN7cvflann7anyimpl21typed_base_any_policyINS_20flann_centers_init_tEE4typeEv, .-_ZN7cvflann7anyimpl21typed_base_any_policyINS_20flann_centers_init_tEE4typeEv
	.section	.text._ZN7cvflann7anyimpl14big_any_policyINS_20flann_centers_init_tEE5cloneEPKPvPS4_,"axG",@progbits,_ZN7cvflann7anyimpl14big_any_policyINS_20flann_centers_init_tEE5cloneEPKPvPS4_,comdat
	.align	2
	.p2align 3,,7
	.weak	_ZN7cvflann7anyimpl14big_any_policyINS_20flann_centers_init_tEE5cloneEPKPvPS4_
	.type	_ZN7cvflann7anyimpl14big_any_policyINS_20flann_centers_init_tEE5cloneEPKPvPS4_, %function
_ZN7cvflann7anyimpl14big_any_policyINS_20flann_centers_init_tEE5cloneEPKPvPS4_:
.LFB15238:
	.loc 1 89 0
	.cfi_startproc
.LVL122:
	stp	x29, x30, [sp, -32]!
	.cfi_def_cfa_offset 32
	.cfi_offset 29, -32
	.cfi_offset 30, -24
	.loc 1 91 0
	mov	x0, 4
.LVL123:
	.loc 1 89 0
	add	x29, sp, 0
	.cfi_def_cfa_register 29
	stp	x19, x20, [sp, 16]
	.cfi_offset 19, -16
	.cfi_offset 20, -8
	.loc 1 89 0
	mov	x20, x1
	mov	x19, x2
	.loc 1 91 0
	bl	_Znwm
.LVL124:
	ldr	x1, [x20]
	ldr	w1, [x1]
	str	w1, [x0]
	str	x0, [x19]
	.loc 1 92 0
	ldp	x19, x20, [sp, 16]
.LVL125:
	ldp	x29, x30, [sp], 32
	.cfi_restore 30
	.cfi_restore 29
	.cfi_restore 19
	.cfi_restore 20
	.cfi_def_cfa 31, 0
	ret
	.cfi_endproc
.LFE15238:
	.size	_ZN7cvflann7anyimpl14big_any_policyINS_20flann_centers_init_tEE5cloneEPKPvPS4_, .-_ZN7cvflann7anyimpl14big_any_policyINS_20flann_centers_init_tEE5cloneEPKPvPS4_
	.section	.text._ZN7cvflann7anyimpl14big_any_policyINS_20flann_centers_init_tEE15copy_from_valueEPKvPPv,"axG",@progbits,_ZN7cvflann7anyimpl14big_any_policyINS_20flann_centers_init_tEE15copy_from_valueEPKvPPv,comdat
	.align	2
	.p2align 3,,7
	.weak	_ZN7cvflann7anyimpl14big_any_policyINS_20flann_centers_init_tEE15copy_from_valueEPKvPPv
	.type	_ZN7cvflann7anyimpl14big_any_policyINS_20flann_centers_init_tEE15copy_from_valueEPKvPPv, %function
_ZN7cvflann7anyimpl14big_any_policyINS_20flann_centers_init_tEE15copy_from_valueEPKvPPv:
.LFB15237:
	.loc 1 85 0
	.cfi_startproc
.LVL126:
	stp	x29, x30, [sp, -32]!
	.cfi_def_cfa_offset 32
	.cfi_offset 29, -32
	.cfi_offset 30, -24
	.loc 1 87 0
	mov	x0, 4
.LVL127:
	.loc 1 85 0
	add	x29, sp, 0
	.cfi_def_cfa_register 29
	stp	x19, x20, [sp, 16]
	.cfi_offset 19, -16
	.cfi_offset 20, -8
	.loc 1 85 0
	mov	x20, x1
	mov	x19, x2
	.loc 1 87 0
	bl	_Znwm
.LVL128:
	ldr	w1, [x20]
	str	w1, [x0]
	str	x0, [x19]
	.loc 1 88 0
	ldp	x19, x20, [sp, 16]
.LVL129:
	ldp	x29, x30, [sp], 32
	.cfi_restore 30
	.cfi_restore 29
	.cfi_restore 19
	.cfi_restore 20
	.cfi_def_cfa 31, 0
	ret
	.cfi_endproc
.LFE15237:
	.size	_ZN7cvflann7anyimpl14big_any_policyINS_20flann_centers_init_tEE15copy_from_valueEPKvPPv, .-_ZN7cvflann7anyimpl14big_any_policyINS_20flann_centers_init_tEE15copy_from_valueEPKvPPv
	.section	.text._ZN7cvflann7anyimpl14big_any_policyINS_17flann_algorithm_tEE5cloneEPKPvPS4_,"axG",@progbits,_ZN7cvflann7anyimpl14big_any_policyINS_17flann_algorithm_tEE5cloneEPKPvPS4_,comdat
	.align	2
	.p2align 3,,7
	.weak	_ZN7cvflann7anyimpl14big_any_policyINS_17flann_algorithm_tEE5cloneEPKPvPS4_
	.type	_ZN7cvflann7anyimpl14big_any_policyINS_17flann_algorithm_tEE5cloneEPKPvPS4_, %function
_ZN7cvflann7anyimpl14big_any_policyINS_17flann_algorithm_tEE5cloneEPKPvPS4_:
.LFB15230:
	.loc 1 89 0
	.cfi_startproc
.LVL130:
	stp	x29, x30, [sp, -32]!
	.cfi_def_cfa_offset 32
	.cfi_offset 29, -32
	.cfi_offset 30, -24
	.loc 1 91 0
	mov	x0, 4
.LVL131:
	.loc 1 89 0
	add	x29, sp, 0
	.cfi_def_cfa_register 29
	stp	x19, x20, [sp, 16]
	.cfi_offset 19, -16
	.cfi_offset 20, -8
	.loc 1 89 0
	mov	x20, x1
	mov	x19, x2
	.loc 1 91 0
	bl	_Znwm
.LVL132:
	ldr	x1, [x20]
	ldr	w1, [x1]
	str	w1, [x0]
	str	x0, [x19]
	.loc 1 92 0
	ldp	x19, x20, [sp, 16]
.LVL133:
	ldp	x29, x30, [sp], 32
	.cfi_restore 30
	.cfi_restore 29
	.cfi_restore 19
	.cfi_restore 20
	.cfi_def_cfa 31, 0
	ret
	.cfi_endproc
.LFE15230:
	.size	_ZN7cvflann7anyimpl14big_any_policyINS_17flann_algorithm_tEE5cloneEPKPvPS4_, .-_ZN7cvflann7anyimpl14big_any_policyINS_17flann_algorithm_tEE5cloneEPKPvPS4_
	.section	.text._ZN7cvflann7anyimpl14big_any_policyINS_17flann_algorithm_tEE15copy_from_valueEPKvPPv,"axG",@progbits,_ZN7cvflann7anyimpl14big_any_policyINS_17flann_algorithm_tEE15copy_from_valueEPKvPPv,comdat
	.align	2
	.p2align 3,,7
	.weak	_ZN7cvflann7anyimpl14big_any_policyINS_17flann_algorithm_tEE15copy_from_valueEPKvPPv
	.type	_ZN7cvflann7anyimpl14big_any_policyINS_17flann_algorithm_tEE15copy_from_valueEPKvPPv, %function
_ZN7cvflann7anyimpl14big_any_policyINS_17flann_algorithm_tEE15copy_from_valueEPKvPPv:
.LFB15229:
	.loc 1 85 0
	.cfi_startproc
.LVL134:
	stp	x29, x30, [sp, -32]!
	.cfi_def_cfa_offset 32
	.cfi_offset 29, -32
	.cfi_offset 30, -24
	.loc 1 87 0
	mov	x0, 4
.LVL135:
	.loc 1 85 0
	add	x29, sp, 0
	.cfi_def_cfa_register 29
	stp	x19, x20, [sp, 16]
	.cfi_offset 19, -16
	.cfi_offset 20, -8
	.loc 1 85 0
	mov	x20, x1
	mov	x19, x2
	.loc 1 87 0
	bl	_Znwm
.LVL136:
	ldr	w1, [x20]
	str	w1, [x0]
	str	x0, [x19]
	.loc 1 88 0
	ldp	x19, x20, [sp, 16]
.LVL137:
	ldp	x29, x30, [sp], 32
	.cfi_restore 30
	.cfi_restore 29
	.cfi_restore 19
	.cfi_restore 20
	.cfi_def_cfa 31, 0
	ret
	.cfi_endproc
.LFE15229:
	.size	_ZN7cvflann7anyimpl14big_any_policyINS_17flann_algorithm_tEE15copy_from_valueEPKvPPv, .-_ZN7cvflann7anyimpl14big_any_policyINS_17flann_algorithm_tEE15copy_from_valueEPKvPPv
	.section	.text._ZN7cvflann7anyimpl14big_any_policyINS0_9empty_anyEE5cloneEPKPvPS4_,"axG",@progbits,_ZN7cvflann7anyimpl14big_any_policyINS0_9empty_anyEE5cloneEPKPvPS4_,comdat
	.align	2
	.p2align 3,,7
	.weak	_ZN7cvflann7anyimpl14big_any_policyINS0_9empty_anyEE5cloneEPKPvPS4_
	.type	_ZN7cvflann7anyimpl14big_any_policyINS0_9empty_anyEE5cloneEPKPvPS4_, %function
_ZN7cvflann7anyimpl14big_any_policyINS0_9empty_anyEE5cloneEPKPvPS4_:
.LFB15213:
	.loc 1 89 0
	.cfi_startproc
.LVL138:
	stp	x29, x30, [sp, -32]!
	.cfi_def_cfa_offset 32
	.cfi_offset 29, -32
	.cfi_offset 30, -24
	.loc 1 91 0
	mov	x0, 1
.LVL139:
	.loc 1 89 0
	add	x29, sp, 0
	.cfi_def_cfa_register 29
	str	x19, [sp, 16]
	.cfi_offset 19, -16
	.loc 1 89 0
	mov	x19, x2
	.loc 1 91 0
	bl	_Znwm
.LVL140:
	str	x0, [x19]
	.loc 1 92 0
	ldr	x19, [sp, 16]
.LVL141:
	ldp	x29, x30, [sp], 32
	.cfi_restore 30
	.cfi_restore 29
	.cfi_restore 19
	.cfi_def_cfa 31, 0
	ret
	.cfi_endproc
.LFE15213:
	.size	_ZN7cvflann7anyimpl14big_any_policyINS0_9empty_anyEE5cloneEPKPvPS4_, .-_ZN7cvflann7anyimpl14big_any_policyINS0_9empty_anyEE5cloneEPKPvPS4_
	.section	.text._ZN7cvflann7anyimpl14big_any_policyINS0_9empty_anyEE15copy_from_valueEPKvPPv,"axG",@progbits,_ZN7cvflann7anyimpl14big_any_policyINS0_9empty_anyEE15copy_from_valueEPKvPPv,comdat
	.align	2
	.p2align 3,,7
	.weak	_ZN7cvflann7anyimpl14big_any_policyINS0_9empty_anyEE15copy_from_valueEPKvPPv
	.type	_ZN7cvflann7anyimpl14big_any_policyINS0_9empty_anyEE15copy_from_valueEPKvPPv, %function
_ZN7cvflann7anyimpl14big_any_policyINS0_9empty_anyEE15copy_from_valueEPKvPPv:
.LFB15212:
	.loc 1 85 0
	.cfi_startproc
.LVL142:
	stp	x29, x30, [sp, -32]!
	.cfi_def_cfa_offset 32
	.cfi_offset 29, -32
	.cfi_offset 30, -24
	.loc 1 87 0
	mov	x0, 1
.LVL143:
	.loc 1 85 0
	add	x29, sp, 0
	.cfi_def_cfa_register 29
	str	x19, [sp, 16]
	.cfi_offset 19, -16
	.loc 1 85 0
	mov	x19, x2
	.loc 1 87 0
	bl	_Znwm
.LVL144:
	str	x0, [x19]
	.loc 1 88 0
	ldr	x19, [sp, 16]
.LVL145:
	ldp	x29, x30, [sp], 32
	.cfi_restore 30
	.cfi_restore 29
	.cfi_restore 19
	.cfi_def_cfa 31, 0
	ret
	.cfi_endproc
.LFE15212:
	.size	_ZN7cvflann7anyimpl14big_any_policyINS0_9empty_anyEE15copy_from_valueEPKvPPv, .-_ZN7cvflann7anyimpl14big_any_policyINS0_9empty_anyEE15copy_from_valueEPKvPPv
	.section	.text._ZN7cvflann7anyimpl14big_any_policyINS_20flann_centers_init_tEE13static_deleteEPPv,"axG",@progbits,_ZN7cvflann7anyimpl14big_any_policyINS_20flann_centers_init_tEE13static_deleteEPPv,comdat
	.align	2
	.p2align 3,,7
	.weak	_ZN7cvflann7anyimpl14big_any_policyINS_20flann_centers_init_tEE13static_deleteEPPv
	.type	_ZN7cvflann7anyimpl14big_any_policyINS_20flann_centers_init_tEE13static_deleteEPPv, %function
_ZN7cvflann7anyimpl14big_any_policyINS_20flann_centers_init_tEE13static_deleteEPPv:
.LFB15236:
	.loc 1 80 0
	.cfi_startproc
.LVL146:
	stp	x29, x30, [sp, -32]!
	.cfi_def_cfa_offset 32
	.cfi_offset 29, -32
	.cfi_offset 30, -24
	add	x29, sp, 0
	.cfi_def_cfa_register 29
	.loc 1 82 0
	ldr	x0, [x1]
.LVL147:
	.loc 1 80 0
	str	x19, [sp, 16]
	.cfi_offset 19, -16
	.loc 1 80 0
	mov	x19, x1
	.loc 1 82 0
	cbz	x0, .L103
	.loc 1 82 0 is_stmt 0 discriminator 1
	bl	_ZdlPv
.LVL148:
.L103:
	.loc 1 83 0 is_stmt 1
	str	xzr, [x19]
	.loc 1 84 0
	ldr	x19, [sp, 16]
.LVL149:
	ldp	x29, x30, [sp], 32
	.cfi_restore 30
	.cfi_restore 29
	.cfi_restore 19
	.cfi_def_cfa 31, 0
	ret
	.cfi_endproc
.LFE15236:
	.size	_ZN7cvflann7anyimpl14big_any_policyINS_20flann_centers_init_tEE13static_deleteEPPv, .-_ZN7cvflann7anyimpl14big_any_policyINS_20flann_centers_init_tEE13static_deleteEPPv
	.section	.text._ZN7cvflann7anyimpl14big_any_policyINS_17flann_algorithm_tEE13static_deleteEPPv,"axG",@progbits,_ZN7cvflann7anyimpl14big_any_policyINS_17flann_algorithm_tEE13static_deleteEPPv,comdat
	.align	2
	.p2align 3,,7
	.weak	_ZN7cvflann7anyimpl14big_any_policyINS_17flann_algorithm_tEE13static_deleteEPPv
	.type	_ZN7cvflann7anyimpl14big_any_policyINS_17flann_algorithm_tEE13static_deleteEPPv, %function
_ZN7cvflann7anyimpl14big_any_policyINS_17flann_algorithm_tEE13static_deleteEPPv:
.LFB15228:
	.loc 1 80 0
	.cfi_startproc
.LVL150:
	stp	x29, x30, [sp, -32]!
	.cfi_def_cfa_offset 32
	.cfi_offset 29, -32
	.cfi_offset 30, -24
	add	x29, sp, 0
	.cfi_def_cfa_register 29
	.loc 1 82 0
	ldr	x0, [x1]
.LVL151:
	.loc 1 80 0
	str	x19, [sp, 16]
	.cfi_offset 19, -16
	.loc 1 80 0
	mov	x19, x1
	.loc 1 82 0
	cbz	x0, .L109
	.loc 1 82 0 is_stmt 0 discriminator 1
	bl	_ZdlPv
.LVL152:
.L109:
	.loc 1 83 0 is_stmt 1
	str	xzr, [x19]
	.loc 1 84 0
	ldr	x19, [sp, 16]
.LVL153:
	ldp	x29, x30, [sp], 32
	.cfi_restore 30
	.cfi_restore 29
	.cfi_restore 19
	.cfi_def_cfa 31, 0
	ret
	.cfi_endproc
.LFE15228:
	.size	_ZN7cvflann7anyimpl14big_any_policyINS_17flann_algorithm_tEE13static_deleteEPPv, .-_ZN7cvflann7anyimpl14big_any_policyINS_17flann_algorithm_tEE13static_deleteEPPv
	.section	.text._ZN7cvflann7anyimpl14big_any_policyINS0_9empty_anyEE13static_deleteEPPv,"axG",@progbits,_ZN7cvflann7anyimpl14big_any_policyINS0_9empty_anyEE13static_deleteEPPv,comdat
	.align	2
	.p2align 3,,7
	.weak	_ZN7cvflann7anyimpl14big_any_policyINS0_9empty_anyEE13static_deleteEPPv
	.type	_ZN7cvflann7anyimpl14big_any_policyINS0_9empty_anyEE13static_deleteEPPv, %function
_ZN7cvflann7anyimpl14big_any_policyINS0_9empty_anyEE13static_deleteEPPv:
.LFB15211:
	.loc 1 80 0
	.cfi_startproc
.LVL154:
	stp	x29, x30, [sp, -32]!
	.cfi_def_cfa_offset 32
	.cfi_offset 29, -32
	.cfi_offset 30, -24
	add	x29, sp, 0
	.cfi_def_cfa_register 29
	.loc 1 82 0
	ldr	x0, [x1]
.LVL155:
	.loc 1 80 0
	str	x19, [sp, 16]
	.cfi_offset 19, -16
	.loc 1 80 0
	mov	x19, x1
	.loc 1 82 0
	cbz	x0, .L115
	.loc 1 82 0 is_stmt 0 discriminator 1
	bl	_ZdlPv
.LVL156:
.L115:
	.loc 1 83 0 is_stmt 1
	str	xzr, [x19]
	.loc 1 84 0
	ldr	x19, [sp, 16]
.LVL157:
	ldp	x29, x30, [sp], 32
	.cfi_restore 30
	.cfi_restore 29
	.cfi_restore 19
	.cfi_def_cfa 31, 0
	ret
	.cfi_endproc
.LFE15211:
	.size	_ZN7cvflann7anyimpl14big_any_policyINS0_9empty_anyEE13static_deleteEPPv, .-_ZN7cvflann7anyimpl14big_any_policyINS0_9empty_anyEE13static_deleteEPPv
	.section	.text._ZN7cvflann7anyimpl14big_any_policyINS0_9empty_anyEED0Ev,"axG",@progbits,_ZN7cvflann7anyimpl14big_any_policyINS0_9empty_anyEED5Ev,comdat
	.align	2
	.p2align 3,,7
	.weak	_ZN7cvflann7anyimpl14big_any_policyINS0_9empty_anyEED0Ev
	.type	_ZN7cvflann7anyimpl14big_any_policyINS0_9empty_anyEED0Ev, %function
_ZN7cvflann7anyimpl14big_any_policyINS0_9empty_anyEED0Ev:
.LFB12245:
	.loc 1 78 0
	.cfi_startproc
.LVL158:
	.loc 1 78 0
	b	_ZdlPv
.LVL159:
	.cfi_endproc
.LFE12245:
	.size	_ZN7cvflann7anyimpl14big_any_policyINS0_9empty_anyEED0Ev, .-_ZN7cvflann7anyimpl14big_any_policyINS0_9empty_anyEED0Ev
	.section	.text._ZN7cvflann7anyimpl16small_any_policyIPKcED0Ev,"axG",@progbits,_ZN7cvflann7anyimpl16small_any_policyIPKcED5Ev,comdat
	.align	2
	.p2align 3,,7
	.weak	_ZN7cvflann7anyimpl16small_any_policyIPKcED0Ev
	.type	_ZN7cvflann7anyimpl16small_any_policyIPKcED0Ev, %function
_ZN7cvflann7anyimpl16small_any_policyIPKcED0Ev:
.LFB13079:
	.loc 1 63 0
	.cfi_startproc
.LVL160:
	.loc 1 63 0
	b	_ZdlPv
.LVL161:
	.cfi_endproc
.LFE13079:
	.size	_ZN7cvflann7anyimpl16small_any_policyIPKcED0Ev, .-_ZN7cvflann7anyimpl16small_any_policyIPKcED0Ev
	.section	.text._ZN7cvflann7anyimpl16small_any_policyIiED0Ev,"axG",@progbits,_ZN7cvflann7anyimpl16small_any_policyIiED5Ev,comdat
	.align	2
	.p2align 3,,7
	.weak	_ZN7cvflann7anyimpl16small_any_policyIiED0Ev
	.type	_ZN7cvflann7anyimpl16small_any_policyIiED0Ev, %function
_ZN7cvflann7anyimpl16small_any_policyIiED0Ev:
.LFB13682:
	.loc 1 63 0
	.cfi_startproc
.LVL162:
	.loc 1 63 0
	b	_ZdlPv
.LVL163:
	.cfi_endproc
.LFE13682:
	.size	_ZN7cvflann7anyimpl16small_any_policyIiED0Ev, .-_ZN7cvflann7anyimpl16small_any_policyIiED0Ev
	.section	.text._ZN7cvflann7anyimpl16small_any_policyIfED0Ev,"axG",@progbits,_ZN7cvflann7anyimpl16small_any_policyIfED5Ev,comdat
	.align	2
	.p2align 3,,7
	.weak	_ZN7cvflann7anyimpl16small_any_policyIfED0Ev
	.type	_ZN7cvflann7anyimpl16small_any_policyIfED0Ev, %function
_ZN7cvflann7anyimpl16small_any_policyIfED0Ev:
.LFB13697:
	.loc 1 63 0
	.cfi_startproc
.LVL164:
	.loc 1 63 0
	b	_ZdlPv
.LVL165:
	.cfi_endproc
.LFE13697:
	.size	_ZN7cvflann7anyimpl16small_any_policyIfED0Ev, .-_ZN7cvflann7anyimpl16small_any_policyIfED0Ev
	.section	.text._ZN7cvflann7anyimpl16small_any_policyIbED0Ev,"axG",@progbits,_ZN7cvflann7anyimpl16small_any_policyIbED5Ev,comdat
	.align	2
	.p2align 3,,7
	.weak	_ZN7cvflann7anyimpl16small_any_policyIbED0Ev
	.type	_ZN7cvflann7anyimpl16small_any_policyIbED0Ev, %function
_ZN7cvflann7anyimpl16small_any_policyIbED0Ev:
.LFB13712:
	.loc 1 63 0
	.cfi_startproc
.LVL166:
	.loc 1 63 0
	b	_ZdlPv
.LVL167:
	.cfi_endproc
.LFE13712:
	.size	_ZN7cvflann7anyimpl16small_any_policyIbED0Ev, .-_ZN7cvflann7anyimpl16small_any_policyIbED0Ev
	.section	.text._ZN7cvflann7anyimpl14big_any_policyINS_17flann_algorithm_tEED0Ev,"axG",@progbits,_ZN7cvflann7anyimpl14big_any_policyINS_17flann_algorithm_tEED5Ev,comdat
	.align	2
	.p2align 3,,7
	.weak	_ZN7cvflann7anyimpl14big_any_policyINS_17flann_algorithm_tEED0Ev
	.type	_ZN7cvflann7anyimpl14big_any_policyINS_17flann_algorithm_tEED0Ev, %function
_ZN7cvflann7anyimpl14big_any_policyINS_17flann_algorithm_tEED0Ev:
.LFB13748:
	.loc 1 78 0
	.cfi_startproc
.LVL168:
	.loc 1 78 0
	b	_ZdlPv
.LVL169:
	.cfi_endproc
.LFE13748:
	.size	_ZN7cvflann7anyimpl14big_any_policyINS_17flann_algorithm_tEED0Ev, .-_ZN7cvflann7anyimpl14big_any_policyINS_17flann_algorithm_tEED0Ev
	.section	.text._ZN7cvflann7anyimpl14big_any_policyINS_20flann_centers_init_tEED0Ev,"axG",@progbits,_ZN7cvflann7anyimpl14big_any_policyINS_20flann_centers_init_tEED5Ev,comdat
	.align	2
	.p2align 3,,7
	.weak	_ZN7cvflann7anyimpl14big_any_policyINS_20flann_centers_init_tEED0Ev
	.type	_ZN7cvflann7anyimpl14big_any_policyINS_20flann_centers_init_tEED0Ev, %function
_ZN7cvflann7anyimpl14big_any_policyINS_20flann_centers_init_tEED0Ev:
.LFB13763:
	.loc 1 78 0
	.cfi_startproc
.LVL170:
	.loc 1 78 0
	b	_ZdlPv
.LVL171:
	.cfi_endproc
.LFE13763:
	.size	_ZN7cvflann7anyimpl14big_any_policyINS_20flann_centers_init_tEED0Ev, .-_ZN7cvflann7anyimpl14big_any_policyINS_20flann_centers_init_tEED0Ev
	.section	.text._ZN7cvflann7anyimpl16small_any_policyIjED0Ev,"axG",@progbits,_ZN7cvflann7anyimpl16small_any_policyIjED5Ev,comdat
	.align	2
	.p2align 3,,7
	.weak	_ZN7cvflann7anyimpl16small_any_policyIjED0Ev
	.type	_ZN7cvflann7anyimpl16small_any_policyIjED0Ev, %function
_ZN7cvflann7anyimpl16small_any_policyIjED0Ev:
.LFB13839:
	.loc 1 63 0
	.cfi_startproc
.LVL172:
	.loc 1 63 0
	b	_ZdlPv
.LVL173:
	.cfi_endproc
.LFE13839:
	.size	_ZN7cvflann7anyimpl16small_any_policyIjED0Ev, .-_ZN7cvflann7anyimpl16small_any_policyIjED0Ev
	.section	.text._ZN7cvflann7anyimpl14big_any_policyIN2cv6StringEED0Ev,"axG",@progbits,_ZN7cvflann7anyimpl14big_any_policyIN2cv6StringEED5Ev,comdat
	.align	2
	.p2align 3,,7
	.weak	_ZN7cvflann7anyimpl14big_any_policyIN2cv6StringEED0Ev
	.type	_ZN7cvflann7anyimpl14big_any_policyIN2cv6StringEED0Ev, %function
_ZN7cvflann7anyimpl14big_any_policyIN2cv6StringEED0Ev:
.LFB13854:
	.loc 1 78 0
	.cfi_startproc
.LVL174:
	.loc 1 78 0
	b	_ZdlPv
.LVL175:
	.cfi_endproc
.LFE13854:
	.size	_ZN7cvflann7anyimpl14big_any_policyIN2cv6StringEED0Ev, .-_ZN7cvflann7anyimpl14big_any_policyIN2cv6StringEED0Ev
	.section	.text._ZN7cvflann7anyimpl14big_any_policyIN2cv6StringEE13static_deleteEPPv,"axG",@progbits,_ZN7cvflann7anyimpl14big_any_policyIN2cv6StringEE13static_deleteEPPv,comdat
	.align	2
	.p2align 3,,7
	.weak	_ZN7cvflann7anyimpl14big_any_policyIN2cv6StringEE13static_deleteEPPv
	.type	_ZN7cvflann7anyimpl14big_any_policyIN2cv6StringEE13static_deleteEPPv, %function
_ZN7cvflann7anyimpl14big_any_policyIN2cv6StringEE13static_deleteEPPv:
.LFB15220:
	.loc 1 80 0
	.cfi_startproc
	.cfi_personality 0x9b,DW.ref.__gxx_personality_v0
	.cfi_lsda 0x1b,.LLSDA15220
.LVL176:
	stp	x29, x30, [sp, -32]!
	.cfi_def_cfa_offset 32
	.cfi_offset 29, -32
	.cfi_offset 30, -24
	add	x29, sp, 0
	.cfi_def_cfa_register 29
	stp	x19, x20, [sp, 16]
	.cfi_offset 19, -16
	.cfi_offset 20, -8
	.loc 1 80 0
	mov	x20, x1
	.loc 1 82 0
	ldr	x19, [x1]
	cbz	x19, .L130
.LVL177:
.LBB762:
.LBB763:
	.file 2 "/usr/include/opencv2/core/cvstd.hpp"
	.loc 2 648 0
	mov	x0, x19
.LVL178:
	bl	_ZN2cv6String10deallocateEv
.LVL179:
.LBE763:
.LBE762:
	.loc 1 82 0
	mov	x0, x19
	bl	_ZdlPv
.LVL180:
.L130:
	.loc 1 83 0
	str	xzr, [x20]
	.loc 1 84 0
	ldp	x19, x20, [sp, 16]
.LVL181:
	ldp	x29, x30, [sp], 32
	.cfi_restore 30
	.cfi_restore 29
	.cfi_restore 19
	.cfi_restore 20
	.cfi_def_cfa 31, 0
	ret
	.cfi_endproc
.LFE15220:
	.global	__gxx_personality_v0
	.section	.gcc_except_table._ZN7cvflann7anyimpl14big_any_policyIN2cv6StringEE13static_deleteEPPv,"aG",@progbits,_ZN7cvflann7anyimpl14big_any_policyIN2cv6StringEE13static_deleteEPPv,comdat
.LLSDA15220:
	.byte	0xff
	.byte	0xff
	.byte	0x1
	.uleb128 .LLSDACSE15220-.LLSDACSB15220
.LLSDACSB15220:
.LLSDACSE15220:
	.section	.text._ZN7cvflann7anyimpl14big_any_policyIN2cv6StringEE13static_deleteEPPv,"axG",@progbits,_ZN7cvflann7anyimpl14big_any_policyIN2cv6StringEE13static_deleteEPPv,comdat
	.size	_ZN7cvflann7anyimpl14big_any_policyIN2cv6StringEE13static_deleteEPPv, .-_ZN7cvflann7anyimpl14big_any_policyIN2cv6StringEE13static_deleteEPPv
	.section	.text._ZN7cvflann7anyimpl14big_any_policyIN2cv6StringEE5cloneEPKPvPS5_,"axG",@progbits,_ZN7cvflann7anyimpl14big_any_policyIN2cv6StringEE5cloneEPKPvPS5_,comdat
	.align	2
	.p2align 3,,7
	.weak	_ZN7cvflann7anyimpl14big_any_policyIN2cv6StringEE5cloneEPKPvPS5_
	.type	_ZN7cvflann7anyimpl14big_any_policyIN2cv6StringEE5cloneEPKPvPS5_, %function
_ZN7cvflann7anyimpl14big_any_policyIN2cv6StringEE5cloneEPKPvPS5_:
.LFB15222:
	.loc 1 89 0
	.cfi_startproc
.LVL182:
	stp	x29, x30, [sp, -32]!
	.cfi_def_cfa_offset 32
	.cfi_offset 29, -32
	.cfi_offset 30, -24
	.loc 1 91 0
	mov	x0, 16
.LVL183:
	.loc 1 89 0
	add	x29, sp, 0
	.cfi_def_cfa_register 29
	stp	x19, x20, [sp, 16]
	.cfi_offset 19, -16
	.cfi_offset 20, -8
	.loc 1 89 0
	mov	x20, x1
	mov	x19, x2
	.loc 1 91 0
	bl	_Znwm
.LVL184:
	ldr	x3, [x20]
.LVL185:
.LBB764:
.LBB765:
	.loc 2 572 0
	ldp	x1, x2, [x3]
	stp	x1, x2, [x0]
	.loc 2 574 0
	cbz	x1, .L136
	.loc 2 575 0
	sub	x1, x1, #4
.LVL186:
.L140:
	ldaxr	w2, [x1]
	add	w2, w2, 1
	stlxr	w3, w2, [x1]
	cbnz	w3, .L140
.L136:
.LVL187:
.LBE765:
.LBE764:
	.loc 1 91 0
	str	x0, [x19]
	.loc 1 92 0
	ldp	x19, x20, [sp, 16]
.LVL188:
	ldp	x29, x30, [sp], 32
	.cfi_restore 30
	.cfi_restore 29
	.cfi_restore 19
	.cfi_restore 20
	.cfi_def_cfa 31, 0
	ret
	.cfi_endproc
.LFE15222:
	.size	_ZN7cvflann7anyimpl14big_any_policyIN2cv6StringEE5cloneEPKPvPS5_, .-_ZN7cvflann7anyimpl14big_any_policyIN2cv6StringEE5cloneEPKPvPS5_
	.section	.text._ZN7cvflann7anyimpl14big_any_policyIN2cv6StringEE15copy_from_valueEPKvPPv,"axG",@progbits,_ZN7cvflann7anyimpl14big_any_policyIN2cv6StringEE15copy_from_valueEPKvPPv,comdat
	.align	2
	.p2align 3,,7
	.weak	_ZN7cvflann7anyimpl14big_any_policyIN2cv6StringEE15copy_from_valueEPKvPPv
	.type	_ZN7cvflann7anyimpl14big_any_policyIN2cv6StringEE15copy_from_valueEPKvPPv, %function
_ZN7cvflann7anyimpl14big_any_policyIN2cv6StringEE15copy_from_valueEPKvPPv:
.LFB15221:
	.loc 1 85 0
	.cfi_startproc
.LVL189:
	stp	x29, x30, [sp, -32]!
	.cfi_def_cfa_offset 32
	.cfi_offset 29, -32
	.cfi_offset 30, -24
	.loc 1 87 0
	mov	x0, 16
.LVL190:
	.loc 1 85 0
	add	x29, sp, 0
	.cfi_def_cfa_register 29
	stp	x19, x20, [sp, 16]
	.cfi_offset 19, -16
	.cfi_offset 20, -8
	.loc 1 85 0
	mov	x19, x1
	mov	x20, x2
	.loc 1 87 0
	bl	_Znwm
.LVL191:
.LBB766:
.LBB767:
	.loc 2 572 0
	ldp	x3, x1, [x19]
	stp	x3, x1, [x0]
	.loc 2 574 0
	cbz	x3, .L143
	.loc 2 575 0
	sub	x3, x3, #4
.L147:
	ldaxr	w1, [x3]
	add	w1, w1, 1
	stlxr	w2, w1, [x3]
	cbnz	w2, .L147
.L143:
.LVL192:
.LBE767:
.LBE766:
	.loc 1 87 0
	str	x0, [x20]
	.loc 1 88 0
	ldp	x19, x20, [sp, 16]
.LVL193:
	ldp	x29, x30, [sp], 32
	.cfi_restore 30
	.cfi_restore 29
	.cfi_restore 19
	.cfi_restore 20
	.cfi_def_cfa 31, 0
	ret
	.cfi_endproc
.LFE15221:
	.size	_ZN7cvflann7anyimpl14big_any_policyIN2cv6StringEE15copy_from_valueEPKvPPv, .-_ZN7cvflann7anyimpl14big_any_policyIN2cv6StringEE15copy_from_valueEPKvPPv
	.section	.text._ZN7cvflann7anyimpl16small_any_policyIjE5printERSoPKPv,"axG",@progbits,_ZN7cvflann7anyimpl16small_any_policyIjE5printERSoPKPv,comdat
	.align	2
	.p2align 3,,7
	.weak	_ZN7cvflann7anyimpl16small_any_policyIjE5printERSoPKPv
	.type	_ZN7cvflann7anyimpl16small_any_policyIjE5printERSoPKPv, %function
_ZN7cvflann7anyimpl16small_any_policyIjE5printERSoPKPv:
.LFB15060:
	.loc 1 74 0
	.cfi_startproc
.LVL194:
	.loc 1 74 0
	mov	x0, x1
.LVL195:
.LBB768:
.LBB769:
	.file 3 "/usr/include/c++/7/ostream"
	.loc 3 196 0
	ldr	w1, [x2]
.LVL196:
	b	_ZNSo9_M_insertImEERSoT_
.LVL197:
.LBE769:
.LBE768:
	.cfi_endproc
.LFE15060:
	.size	_ZN7cvflann7anyimpl16small_any_policyIjE5printERSoPKPv, .-_ZN7cvflann7anyimpl16small_any_policyIjE5printERSoPKPv
	.section	.text._ZN7cvflann7anyimpl14big_any_policyINS_20flann_centers_init_tEE5printERSoPKPv,"axG",@progbits,_ZN7cvflann7anyimpl14big_any_policyINS_20flann_centers_init_tEE5printERSoPKPv,comdat
	.align	2
	.p2align 3,,7
	.weak	_ZN7cvflann7anyimpl14big_any_policyINS_20flann_centers_init_tEE5printERSoPKPv
	.type	_ZN7cvflann7anyimpl14big_any_policyINS_20flann_centers_init_tEE5printERSoPKPv, %function
_ZN7cvflann7anyimpl14big_any_policyINS_20flann_centers_init_tEE5printERSoPKPv:
.LFB8860:
	.loc 1 104 0
	.cfi_startproc
.LVL198:
	.loc 1 105 0
	ldr	x2, [x2]
.LVL199:
	.loc 1 104 0
	mov	x0, x1
.LVL200:
	.loc 1 105 0
	ldr	w1, [x2]
.LVL201:
	b	_ZNSolsEi
.LVL202:
	.cfi_endproc
.LFE8860:
	.size	_ZN7cvflann7anyimpl14big_any_policyINS_20flann_centers_init_tEE5printERSoPKPv, .-_ZN7cvflann7anyimpl14big_any_policyINS_20flann_centers_init_tEE5printERSoPKPv
	.section	.text._ZN7cvflann7anyimpl14big_any_policyINS_17flann_algorithm_tEE5printERSoPKPv,"axG",@progbits,_ZN7cvflann7anyimpl14big_any_policyINS_17flann_algorithm_tEE5printERSoPKPv,comdat
	.align	2
	.p2align 3,,7
	.weak	_ZN7cvflann7anyimpl14big_any_policyINS_17flann_algorithm_tEE5printERSoPKPv
	.type	_ZN7cvflann7anyimpl14big_any_policyINS_17flann_algorithm_tEE5printERSoPKPv, %function
_ZN7cvflann7anyimpl14big_any_policyINS_17flann_algorithm_tEE5printERSoPKPv:
.LFB8861:
	.loc 1 109 0
	.cfi_startproc
.LVL203:
	.loc 1 110 0
	ldr	x2, [x2]
.LVL204:
	.loc 1 109 0
	mov	x0, x1
.LVL205:
	.loc 1 110 0
	ldr	w1, [x2]
.LVL206:
	b	_ZNSolsEi
.LVL207:
	.cfi_endproc
.LFE8861:
	.size	_ZN7cvflann7anyimpl14big_any_policyINS_17flann_algorithm_tEE5printERSoPKPv, .-_ZN7cvflann7anyimpl14big_any_policyINS_17flann_algorithm_tEE5printERSoPKPv
	.section	.text._ZN7cvflann7anyimpl16small_any_policyIiE5printERSoPKPv,"axG",@progbits,_ZN7cvflann7anyimpl16small_any_policyIiE5printERSoPKPv,comdat
	.align	2
	.p2align 3,,7
	.weak	_ZN7cvflann7anyimpl16small_any_policyIiE5printERSoPKPv
	.type	_ZN7cvflann7anyimpl16small_any_policyIiE5printERSoPKPv, %function
_ZN7cvflann7anyimpl16small_any_policyIiE5printERSoPKPv:
.LFB15087:
	.loc 1 74 0
	.cfi_startproc
.LVL208:
	.loc 1 74 0
	mov	x0, x1
.LVL209:
	ldr	w1, [x2]
.LVL210:
	b	_ZNSolsEi
.LVL211:
	.cfi_endproc
.LFE15087:
	.size	_ZN7cvflann7anyimpl16small_any_policyIiE5printERSoPKPv, .-_ZN7cvflann7anyimpl16small_any_policyIiE5printERSoPKPv
	.section	.text._ZN7cvflann7anyimpl16small_any_policyIbE5printERSoPKPv,"axG",@progbits,_ZN7cvflann7anyimpl16small_any_policyIbE5printERSoPKPv,comdat
	.align	2
	.p2align 3,,7
	.weak	_ZN7cvflann7anyimpl16small_any_policyIbE5printERSoPKPv
	.type	_ZN7cvflann7anyimpl16small_any_policyIbE5printERSoPKPv, %function
_ZN7cvflann7anyimpl16small_any_policyIbE5printERSoPKPv:
.LFB15069:
	.loc 1 74 0
	.cfi_startproc
.LVL212:
	.loc 1 74 0
	mov	x0, x1
.LVL213:
.LBB770:
.LBB771:
	.loc 3 175 0
	ldrb	w1, [x2]
.LVL214:
	b	_ZNSo9_M_insertIbEERSoT_
.LVL215:
.LBE771:
.LBE770:
	.cfi_endproc
.LFE15069:
	.size	_ZN7cvflann7anyimpl16small_any_policyIbE5printERSoPKPv, .-_ZN7cvflann7anyimpl16small_any_policyIbE5printERSoPKPv
	.section	.text._ZN7cvflann7anyimpl16small_any_policyIfE5printERSoPKPv,"axG",@progbits,_ZN7cvflann7anyimpl16small_any_policyIfE5printERSoPKPv,comdat
	.align	2
	.p2align 3,,7
	.weak	_ZN7cvflann7anyimpl16small_any_policyIfE5printERSoPKPv
	.type	_ZN7cvflann7anyimpl16small_any_policyIfE5printERSoPKPv, %function
_ZN7cvflann7anyimpl16small_any_policyIfE5printERSoPKPv:
.LFB15078:
	.loc 1 74 0
	.cfi_startproc
.LVL216:
.LBB772:
.LBB773:
	.loc 3 228 0
	ldr	s0, [x2]
	mov	x0, x1
.LVL217:
	fcvt	d0, s0
	b	_ZNSo9_M_insertIdEERSoT_
.LVL218:
.LBE773:
.LBE772:
	.cfi_endproc
.LFE15078:
	.size	_ZN7cvflann7anyimpl16small_any_policyIfE5printERSoPKPv, .-_ZN7cvflann7anyimpl16small_any_policyIfE5printERSoPKPv
	.section	.text._ZN7cvflann7anyimpl14big_any_policyIN2cv6StringEE5printERSoPKPv,"axG",@progbits,_ZN7cvflann7anyimpl14big_any_policyIN2cv6StringEE5printERSoPKPv,comdat
	.align	2
	.p2align 3,,7
	.weak	_ZN7cvflann7anyimpl14big_any_policyIN2cv6StringEE5printERSoPKPv
	.type	_ZN7cvflann7anyimpl14big_any_policyIN2cv6StringEE5printERSoPKPv, %function
_ZN7cvflann7anyimpl14big_any_policyIN2cv6StringEE5printERSoPKPv:
.LFB8862:
	.loc 1 114 0
	.cfi_startproc
.LVL219:
	stp	x29, x30, [sp, -32]!
	.cfi_def_cfa_offset 32
	.cfi_offset 29, -32
	.cfi_offset 30, -24
	add	x29, sp, 0
	.cfi_def_cfa_register 29
	.loc 1 115 0
	ldr	x0, [x2]
.LVL220:
	.loc 1 114 0
	stp	x19, x20, [sp, 16]
	.cfi_offset 19, -16
	.cfi_offset 20, -8
	.loc 1 114 0
	mov	x20, x1
	.loc 1 115 0
	ldr	x19, [x0]
.LVL221:
.LBB788:
.LBB789:
	.loc 2 747 0
	cbz	x19, .L157
	mov	x0, x19
	bl	strlen
.LVL222:
.LBE789:
.LBE788:
.LBB792:
.LBB793:
	.loc 3 561 0
	mov	x1, x19
	mov	x2, x0
.LVL223:
	mov	x0, x20
.LBE793:
.LBE792:
	.loc 1 116 0
	ldp	x19, x20, [sp, 16]
.LVL224:
	ldp	x29, x30, [sp], 32
	.cfi_remember_state
	.cfi_restore 30
	.cfi_restore 29
	.cfi_restore 19
	.cfi_restore 20
	.cfi_def_cfa 31, 0
.LBB797:
.LBB794:
	.loc 3 561 0
	b	_ZSt16__ostream_insertIcSt11char_traitsIcEERSt13basic_ostreamIT_T0_ES6_PKS3_l
.LVL225:
	.p2align 2
.L157:
	.cfi_restore_state
.LBE794:
.LBE797:
.LBB798:
.LBB790:
	.loc 2 747 0
	adrp	x19, .LC0
	add	x19, x19, :lo12:.LC0
.LBE790:
.LBE798:
.LBB799:
.LBB795:
	.loc 3 561 0
	mov	x1, x19
.LVL226:
	mov	x0, x20
.LBE795:
.LBE799:
	.loc 1 116 0
	ldp	x19, x20, [sp, 16]
.LVL227:
.LBB800:
.LBB791:
	.loc 2 747 0
	mov	x2, 0
.LVL228:
.LBE791:
.LBE800:
	.loc 1 116 0
	ldp	x29, x30, [sp], 32
	.cfi_restore 30
	.cfi_restore 29
	.cfi_restore 19
	.cfi_restore 20
	.cfi_def_cfa 31, 0
.LBB801:
.LBB796:
	.loc 3 561 0
	b	_ZSt16__ostream_insertIcSt11char_traitsIcEERSt13basic_ostreamIT_T0_ES6_PKS3_l
.LVL229:
.LBE796:
.LBE801:
	.cfi_endproc
.LFE8862:
	.size	_ZN7cvflann7anyimpl14big_any_policyIN2cv6StringEE5printERSoPKPv, .-_ZN7cvflann7anyimpl14big_any_policyIN2cv6StringEE5printERSoPKPv
	.section	.text._ZN7cvflann7anyimpl14big_any_policyIN2cv6StringEE4moveEPKPvPS5_,"axG",@progbits,_ZN7cvflann7anyimpl14big_any_policyIN2cv6StringEE4moveEPKPvPS5_,comdat
	.align	2
	.p2align 3,,7
	.weak	_ZN7cvflann7anyimpl14big_any_policyIN2cv6StringEE4moveEPKPvPS5_
	.type	_ZN7cvflann7anyimpl14big_any_policyIN2cv6StringEE4moveEPKPvPS5_, %function
_ZN7cvflann7anyimpl14big_any_policyIN2cv6StringEE4moveEPKPvPS5_:
.LFB15223:
	.loc 1 93 0
	.cfi_startproc
	.cfi_personality 0x9b,DW.ref.__gxx_personality_v0
	.cfi_lsda 0x1b,.LLSDA15223
.LVL230:
	stp	x29, x30, [sp, -32]!
	.cfi_def_cfa_offset 32
	.cfi_offset 29, -32
	.cfi_offset 30, -24
	add	x29, sp, 0
	.cfi_def_cfa_register 29
.LBB808:
.LBB809:
	.loc 2 648 0
	ldr	x0, [x2]
.LVL231:
.LBE809:
.LBE808:
	.loc 1 93 0
	stp	x19, x20, [sp, 16]
	.cfi_offset 19, -16
	.cfi_offset 20, -8
	.loc 1 93 0
	mov	x19, x2
.LVL232:
	mov	x20, x1
.LBB811:
.LBB810:
	.loc 2 648 0
	bl	_ZN2cv6String10deallocateEv
.LVL233:
.LBE810:
.LBE811:
	.loc 1 96 0
	ldr	x19, [x19]
.LVL234:
	ldr	x20, [x20]
.LVL235:
.LBB812:
.LBB813:
	.loc 2 654 0
	cmp	x19, x20
	beq	.L159
.LVL236:
.LBB814:
.LBB815:
	.loc 2 656 0
	mov	x0, x19
.LEHB0:
	bl	_ZN2cv6String10deallocateEv
.LVL237:
.LEHE0:
	.loc 2 657 0
	ldr	x0, [x20]
	cbz	x0, .L161
	sub	x0, x0, #4
.L165:
	ldaxr	w1, [x0]
	add	w1, w1, 1
	stlxr	w2, w1, [x0]
	cbnz	w2, .L165
	ldr	x0, [x20]
.L161:
	.loc 2 659 0
	ldr	x1, [x20, 8]
	stp	x0, x1, [x19]
.LVL238:
.L159:
.LBE815:
.LBE814:
.LBE813:
.LBE812:
	.loc 1 97 0
	ldp	x19, x20, [sp, 16]
	ldp	x29, x30, [sp], 32
	.cfi_restore 30
	.cfi_restore 29
	.cfi_restore 19
	.cfi_restore 20
	.cfi_def_cfa 31, 0
	ret
	.cfi_endproc
.LFE15223:
	.section	.gcc_except_table._ZN7cvflann7anyimpl14big_any_policyIN2cv6StringEE4moveEPKPvPS5_,"aG",@progbits,_ZN7cvflann7anyimpl14big_any_policyIN2cv6StringEE4moveEPKPvPS5_,comdat
.LLSDA15223:
	.byte	0xff
	.byte	0xff
	.byte	0x1
	.uleb128 .LLSDACSE15223-.LLSDACSB15223
.LLSDACSB15223:
	.uleb128 .LEHB0-.LFB15223
	.uleb128 .LEHE0-.LEHB0
	.uleb128 0
	.uleb128 0
.LLSDACSE15223:
	.section	.text._ZN7cvflann7anyimpl14big_any_policyIN2cv6StringEE4moveEPKPvPS5_,"axG",@progbits,_ZN7cvflann7anyimpl14big_any_policyIN2cv6StringEE4moveEPKPvPS5_,comdat
	.size	_ZN7cvflann7anyimpl14big_any_policyIN2cv6StringEE4moveEPKPvPS5_, .-_ZN7cvflann7anyimpl14big_any_policyIN2cv6StringEE4moveEPKPvPS5_
	.section	.text._ZN7cvflann7anyimpl14big_any_policyINS0_9empty_anyEE5printERSoPKPv,"axG",@progbits,_ZN7cvflann7anyimpl14big_any_policyINS0_9empty_anyEE5printERSoPKPv,comdat
	.align	2
	.p2align 3,,7
	.weak	_ZN7cvflann7anyimpl14big_any_policyINS0_9empty_anyEE5printERSoPKPv
	.type	_ZN7cvflann7anyimpl14big_any_policyINS0_9empty_anyEE5printERSoPKPv, %function
_ZN7cvflann7anyimpl14big_any_policyINS0_9empty_anyEE5printERSoPKPv:
.LFB15219:
	.loc 1 100 0
	.cfi_startproc
.LVL239:
	.loc 1 100 0
	mov	x0, x1
.LVL240:
.LBB822:
.LBB823:
.LBB824:
.LBB825:
	.loc 3 561 0
	mov	x2, 11
.LVL241:
	adrp	x1, .LC1
.LVL242:
	add	x1, x1, :lo12:.LC1
	b	_ZSt16__ostream_insertIcSt11char_traitsIcEERSt13basic_ostreamIT_T0_ES6_PKS3_l
.LVL243:
.LBE825:
.LBE824:
.LBE823:
.LBE822:
	.cfi_endproc
.LFE15219:
	.size	_ZN7cvflann7anyimpl14big_any_policyINS0_9empty_anyEE5printERSoPKPv, .-_ZN7cvflann7anyimpl14big_any_policyINS0_9empty_anyEE5printERSoPKPv
	.section	.text._ZN7cvflann7anyimpl16small_any_policyIPKcE5printERSoPKPv,"axG",@progbits,_ZN7cvflann7anyimpl16small_any_policyIPKcE5printERSoPKPv,comdat
	.align	2
	.p2align 3,,7
	.weak	_ZN7cvflann7anyimpl16small_any_policyIPKcE5printERSoPKPv
	.type	_ZN7cvflann7anyimpl16small_any_policyIPKcE5printERSoPKPv, %function
_ZN7cvflann7anyimpl16small_any_policyIPKcE5printERSoPKPv:
.LFB15098:
	.loc 1 74 0
	.cfi_startproc
.LVL244:
	stp	x29, x30, [sp, -32]!
	.cfi_def_cfa_offset 32
	.cfi_offset 29, -32
	.cfi_offset 30, -24
	add	x29, sp, 0
	.cfi_def_cfa_register 29
	str	x20, [sp, 24]
	.cfi_offset 20, -8
	ldr	x20, [x2]
.LVL245:
.LBB838:
.LBB839:
	.loc 3 558 0
	cbz	x20, .L171
.LVL246:
	str	x19, [x29, 16]
	.cfi_offset 19, -16
.LBB840:
.LBB841:
	.file 4 "/usr/include/c++/7/bits/char_traits.h"
	.loc 4 320 0
	mov	x0, x20
.LVL247:
	mov	x19, x1
	bl	strlen
.LVL248:
.LBE841:
.LBE840:
	.loc 3 561 0
	mov	x1, x20
	mov	x2, x0
.LBE839:
.LBE838:
	.loc 1 74 0
	ldr	x20, [sp, 24]
.LVL249:
.LBB853:
.LBB850:
	.loc 3 561 0
	mov	x0, x19
	ldr	x19, [x29, 16]
	.cfi_restore 19
.LVL250:
.LBE850:
.LBE853:
	.loc 1 74 0
	ldp	x29, x30, [sp], 32
	.cfi_restore 30
	.cfi_restore 29
	.cfi_restore 20
	.cfi_def_cfa 31, 0
.LBB854:
.LBB851:
	.loc 3 561 0
	b	_ZSt16__ostream_insertIcSt11char_traitsIcEERSt13basic_ostreamIT_T0_ES6_PKS3_l
.LVL251:
	.p2align 2
.L171:
	.cfi_def_cfa 29, 32
	.cfi_offset 20, -8
	.cfi_offset 29, -32
	.cfi_offset 30, -24
.LBB842:
.LBB843:
	.loc 3 559 0
	ldr	x0, [x1]
.LVL252:
.LBE843:
.LBE842:
.LBE851:
.LBE854:
	.loc 1 74 0
	ldr	x20, [sp, 24]
.LVL253:
	ldp	x29, x30, [sp], 32
	.cfi_restore 30
	.cfi_restore 29
	.cfi_restore 20
	.cfi_def_cfa 31, 0
.LBB855:
.LBB852:
.LBB849:
.LBB848:
	.loc 3 559 0
	ldr	x0, [x0, -24]
	add	x1, x1, x0
.LVL254:
.LBB844:
.LBB845:
	.file 5 "/usr/include/c++/7/bits/basic_ios.h"
	.loc 5 158 0
	mov	x0, x1
.LBB846:
.LBB847:
	.file 6 "/usr/include/c++/7/bits/ios_base.h"
	.loc 6 170 0
	ldr	w1, [x1, 32]
.LVL255:
.LBE847:
.LBE846:
	.loc 5 158 0
	orr	w1, w1, 1
	b	_ZNSt9basic_iosIcSt11char_traitsIcEE5clearESt12_Ios_Iostate
.LVL256:
.LBE845:
.LBE844:
.LBE848:
.LBE849:
.LBE852:
.LBE855:
	.cfi_endproc
.LFE15098:
	.size	_ZN7cvflann7anyimpl16small_any_policyIPKcE5printERSoPKPv, .-_ZN7cvflann7anyimpl16small_any_policyIPKcE5printERSoPKPv
	.text
	.align	2
	.p2align 3,,7
	.global	_Z9print_resPhii
	.type	_Z9print_resPhii, %function
_Z9print_resPhii:
.LFB11831:
	.file 7 "/home/nvidia/wlk/arm_neon/box_filter/src/boxFilter.cpp"
	.loc 7 13 0
	.cfi_startproc
.LVL257:
	stp	x29, x30, [sp, -112]!
	.cfi_def_cfa_offset 112
	.cfi_offset 29, -112
	.cfi_offset 30, -104
	add	x29, sp, 0
	.cfi_def_cfa_register 29
	str	x25, [sp, 64]
	.cfi_offset 25, -48
.LBB856:
	.loc 7 14 0
	sub	w25, w2, #50
	cmp	w25, 0
	ble	.L182
	stp	x23, x24, [x29, 48]
	.cfi_offset 24, -56
	.cfi_offset 23, -64
	mov	w24, 50
	stp	x19, x20, [x29, 16]
	.cfi_offset 20, -88
	.cfi_offset 19, -96
.LBB857:
.LBB858:
	.loc 7 16 0
	sub	w19, w1, #50
	mul	w24, w1, w24
	stp	x21, x22, [x29, 32]
	.cfi_offset 22, -72
	.cfi_offset 21, -80
	stp	x26, x27, [x29, 72]
	.cfi_offset 27, -32
	.cfi_offset 26, -40
	adrp	x21, .LC2
	mov	x26, x0
.LBB859:
.LBB860:
	.file 8 "/usr/include/aarch64-linux-gnu/bits/stdio2.h"
	.loc 8 104 0
	add	x21, x21, :lo12:.LC2
	adrp	x0, .LC3
.LVL258:
.LBE860:
.LBE859:
.LBE858:
.LBB863:
.LBB864:
	add	x27, x0, :lo12:.LC3
.LBE864:
.LBE863:
.LBB867:
	.loc 7 16 0
	mov	w23, 0
.LBE867:
.LBE857:
	.loc 7 14 0
	mov	w22, 0
	str	x28, [x29, 88]
	.cfi_offset 28, -24
	str	x0, [x29, 104]
.LVL259:
	.p2align 3
.L176:
.LBB871:
.LBB868:
	.loc 7 16 0
	cmp	w19, 0
	ble	.L174
	.loc 7 18 0
	add	x20, x26, x23, sxtw
	mov	x28, 0
.LVL260:
	.p2align 3
.L175:
.LBB862:
.LBB861:
	.loc 8 104 0 discriminator 2
	ldrb	w2, [x20, x28]
	mov	x1, x21
	mov	w0, 1
	add	x28, x28, 50
.LVL261:
	bl	__printf_chk
.LVL262:
.LBE861:
.LBE862:
	.loc 7 16 0 discriminator 2
	cmp	w19, w28
	bgt	.L175
.L174:
.LVL263:
.LBE868:
.LBB869:
.LBB865:
	.loc 8 104 0
	mov	x1, x27
	mov	w0, 1
.LBE865:
.LBE869:
.LBE871:
	.loc 7 14 0
	add	w22, w22, 50
.LVL264:
.LBB872:
.LBB870:
.LBB866:
	.loc 8 104 0
	bl	__printf_chk
.LVL265:
	add	w23, w23, w24
.LBE866:
.LBE870:
.LBE872:
	.loc 7 14 0
	cmp	w22, w25
	blt	.L176
.LVL266:
	ldp	x19, x20, [x29, 16]
	.cfi_restore 20
	.cfi_restore 19
.LVL267:
	ldp	x21, x22, [x29, 32]
	.cfi_restore 22
	.cfi_restore 21
.LVL268:
	ldp	x23, x24, [x29, 48]
	.cfi_restore 24
	.cfi_restore 23
	ldp	x26, x27, [x29, 72]
	.cfi_restore 27
	.cfi_restore 26
.LVL269:
	ldr	x28, [x29, 88]
	.cfi_restore 28
.LBE856:
.LBB873:
.LBB874:
	.loc 8 104 0
	ldr	x0, [x29, 104]
.LBE874:
.LBE873:
	.loc 7 23 0
	ldr	x25, [sp, 64]
.LVL270:
	ldp	x29, x30, [sp], 112
	.cfi_restore 30
	.cfi_restore 29
	.cfi_restore 25
	.cfi_def_cfa 31, 0
.LBB878:
.LBB875:
	.loc 8 104 0
	add	x1, x0, :lo12:.LC3
	mov	w0, 1
	b	__printf_chk
.LVL271:
.L182:
	.cfi_def_cfa 29, 112
	.cfi_offset 25, -48
	.cfi_offset 29, -112
	.cfi_offset 30, -104
	adrp	x0, .LC3
.LVL272:
	str	x0, [x29, 104]
.LVL273:
.LBE875:
.LBE878:
	.loc 7 23 0
	ldr	x25, [sp, 64]
.LBB879:
.LBB876:
	.loc 8 104 0
	ldr	x0, [x29, 104]
.LBE876:
.LBE879:
	.loc 7 23 0
	ldp	x29, x30, [sp], 112
	.cfi_restore 30
	.cfi_restore 29
	.cfi_restore 25
	.cfi_def_cfa 31, 0
.LBB880:
.LBB877:
	.loc 8 104 0
	add	x1, x0, :lo12:.LC3
.LVL274:
	mov	w0, 1
	b	__printf_chk
.LVL275:
.LBE877:
.LBE880:
	.cfi_endproc
.LFE11831:
	.size	_Z9print_resPhii, .-_Z9print_resPhii
	.align	2
	.p2align 3,,7
	.global	_Z9print_resPfii
	.type	_Z9print_resPfii, %function
_Z9print_resPfii:
.LFB11832:
	.loc 7 26 0
	.cfi_startproc
.LVL276:
	stp	x29, x30, [sp, -112]!
	.cfi_def_cfa_offset 112
	.cfi_offset 29, -112
	.cfi_offset 30, -104
	add	x29, sp, 0
	.cfi_def_cfa_register 29
	str	x25, [sp, 64]
	.cfi_offset 25, -48
.LBB881:
	.loc 7 27 0
	sub	w25, w2, #50
	cmp	w25, 0
	ble	.L193
	stp	x23, x24, [x29, 48]
	.cfi_offset 24, -56
	.cfi_offset 23, -64
	mov	w24, 50
	stp	x19, x20, [x29, 16]
	.cfi_offset 20, -88
	.cfi_offset 19, -96
.LBB882:
.LBB883:
	.loc 7 29 0
	sub	w19, w1, #50
	mul	w24, w1, w24
	stp	x21, x22, [x29, 32]
	.cfi_offset 22, -72
	.cfi_offset 21, -80
	stp	x26, x27, [x29, 72]
	.cfi_offset 27, -32
	.cfi_offset 26, -40
	adrp	x21, .LC4
	mov	x26, x0
.LBB884:
.LBB885:
	.loc 8 104 0
	add	x21, x21, :lo12:.LC4
	adrp	x0, .LC3
.LVL277:
.LBE885:
.LBE884:
.LBE883:
.LBB888:
.LBB889:
	add	x27, x0, :lo12:.LC3
.LBE889:
.LBE888:
.LBB892:
	.loc 7 29 0
	mov	w23, 0
.LBE892:
.LBE882:
	.loc 7 27 0
	mov	w22, 0
	str	x28, [x29, 88]
	.cfi_offset 28, -24
	str	x0, [x29, 104]
.LVL278:
	.p2align 3
.L187:
.LBB896:
.LBB893:
	.loc 7 29 0
	cmp	w19, 0
	ble	.L185
	add	x20, x26, x23, sxtw 2
	.loc 7 31 0
	mov	x28, 0
.LVL279:
	.p2align 3
.L186:
	.loc 7 31 0 is_stmt 0 discriminator 2
	ldr	s0, [x20, x28, lsl 2]
.LBB887:
.LBB886:
	.loc 8 104 0 is_stmt 1 discriminator 2
	mov	x1, x21
	mov	w0, 1
	add	x28, x28, 50
.LVL280:
	fcvt	d0, s0
	bl	__printf_chk
.LVL281:
.LBE886:
.LBE887:
	.loc 7 29 0 discriminator 2
	cmp	w19, w28
	bgt	.L186
.L185:
.LVL282:
.LBE893:
.LBB894:
.LBB890:
	.loc 8 104 0
	mov	x1, x27
	mov	w0, 1
.LBE890:
.LBE894:
.LBE896:
	.loc 7 27 0
	add	w22, w22, 50
.LVL283:
.LBB897:
.LBB895:
.LBB891:
	.loc 8 104 0
	bl	__printf_chk
.LVL284:
	add	w23, w23, w24
.LBE891:
.LBE895:
.LBE897:
	.loc 7 27 0
	cmp	w22, w25
	blt	.L187
.LVL285:
	ldp	x19, x20, [x29, 16]
	.cfi_restore 20
	.cfi_restore 19
.LVL286:
	ldp	x21, x22, [x29, 32]
	.cfi_restore 22
	.cfi_restore 21
.LVL287:
	ldp	x23, x24, [x29, 48]
	.cfi_restore 24
	.cfi_restore 23
	ldp	x26, x27, [x29, 72]
	.cfi_restore 27
	.cfi_restore 26
.LVL288:
	ldr	x28, [x29, 88]
	.cfi_restore 28
.LBE881:
.LBB898:
.LBB899:
	.loc 8 104 0
	ldr	x0, [x29, 104]
.LBE899:
.LBE898:
	.loc 7 36 0
	ldr	x25, [sp, 64]
.LVL289:
	ldp	x29, x30, [sp], 112
	.cfi_restore 30
	.cfi_restore 29
	.cfi_restore 25
	.cfi_def_cfa 31, 0
.LBB903:
.LBB900:
	.loc 8 104 0
	add	x1, x0, :lo12:.LC3
	mov	w0, 1
	b	__printf_chk
.LVL290:
.L193:
	.cfi_def_cfa 29, 112
	.cfi_offset 25, -48
	.cfi_offset 29, -112
	.cfi_offset 30, -104
	adrp	x0, .LC3
.LVL291:
	str	x0, [x29, 104]
.LVL292:
.LBE900:
.LBE903:
	.loc 7 36 0
	ldr	x25, [sp, 64]
.LBB904:
.LBB901:
	.loc 8 104 0
	ldr	x0, [x29, 104]
.LBE901:
.LBE904:
	.loc 7 36 0
	ldp	x29, x30, [sp], 112
	.cfi_restore 30
	.cfi_restore 29
	.cfi_restore 25
	.cfi_def_cfa 31, 0
.LBB905:
.LBB902:
	.loc 8 104 0
	add	x1, x0, :lo12:.LC3
.LVL293:
	mov	w0, 1
	b	__printf_chk
.LVL294:
.LBE902:
.LBE905:
	.cfi_endproc
.LFE11832:
	.size	_Z9print_resPfii, .-_Z9print_resPfii
	.align	2
	.p2align 3,,7
	.global	_Z15naive_boxFilterPfS_iii
	.type	_Z15naive_boxFilterPfS_iii, %function
_Z15naive_boxFilterPfS_iii:
.LFB11833:
	.loc 7 39 0
	.cfi_startproc
.LVL295:
.LBB906:
	.loc 7 40 0
	cmp	w3, 0
	ble	.L209
	cmp	w2, 0
	ble	.L209
.LBE906:
	.loc 7 39 0
	stp	x29, x30, [sp, -32]!
	.cfi_def_cfa_offset 32
	.cfi_offset 29, -32
	.cfi_offset 30, -24
	neg	w17, w4
	mov	x14, x1
	lsl	w30, w4, 1
	add	x29, sp, 0
	.cfi_def_cfa_register 29
	str	x19, [sp, 16]
	.cfi_offset 19, -16
	sub	w18, w3, #1
.LBB912:
.LBB907:
.LBB908:
.LBB909:
	.loc 7 52 0
	sub	w15, w2, #1
	sub	w19, w3, w4
.LVL296:
.L198:
	cmp	w17, 0
	add	w13, w17, w30
	csel	w12, w17, wzr, ge
	cmp	w3, w13
	csel	w13, w18, w13, le
	.loc 7 48 0
	mov	x10, 0
	add	w11, w13, 1
	mul	w16, w12, w2
.LVL297:
	.p2align 3
.L197:
	subs	w9, w10, w4
.LVL298:
	add	w5, w4, w10
	csel	w9, w9, wzr, pl
.LVL299:
	.loc 7 54 0
	movi	v0.2s, #0
	.loc 7 52 0
	cmp	w9, w2
	csel	w9, w15, w9, ge
.LVL300:
.LBB910:
	.loc 7 55 0
	cmp	w13, w12
	blt	.L200
	mov	w8, w16
	mov	w7, w12
.LVL301:
	.p2align 3
.L203:
.LBB911:
	.loc 7 57 0
	cmp	w9, w5
	bgt	.L201
	sxtw	x1, w9
	add	x6, x0, x8, sxtw 2
.LVL302:
	.p2align 3
.L202:
	.loc 7 59 0 discriminator 2
	ldr	s1, [x6, x1, lsl 2]
	add	x1, x1, 1
.LVL303:
	.loc 7 57 0 discriminator 2
	cmp	w5, w1
	.loc 7 59 0 discriminator 2
	fadd	s0, s0, s1
.LVL304:
	.loc 7 57 0 discriminator 2
	bge	.L202
.L201:
.LBE911:
	.loc 7 55 0 discriminator 2
	add	w7, w7, 1
.LVL305:
	add	w8, w8, w2
	cmp	w7, w11
	bne	.L203
.LVL306:
.L200:
.LBE910:
	.loc 7 62 0 discriminator 2
	str	s0, [x14, x10, lsl 2]
.LVL307:
	add	x10, x10, 1
.LVL308:
.LBE909:
	.loc 7 43 0 discriminator 2
	cmp	w2, w10
	bgt	.L197
.LVL309:
	add	w17, w17, 1
.LVL310:
	add	x14, x14, x2, sxtw 2
.LBE908:
.LBE907:
	.loc 7 40 0
	cmp	w17, w19
	bne	.L198
.LBE912:
	.loc 7 65 0
	ldr	x19, [sp, 16]
	ldp	x29, x30, [sp], 32
	.cfi_restore 30
	.cfi_restore 29
	.cfi_restore 19
	.cfi_def_cfa 31, 0
	ret
.LVL311:
.L209:
	ret
	.cfi_endproc
.LFE11833:
	.size	_Z15naive_boxFilterPfS_iii, .-_Z15naive_boxFilterPfS_iii
	.align	2
	.p2align 3,,7
	.global	_Z20boxFilterOpenCVTrickPfS_iiiS_
	.type	_Z20boxFilterOpenCVTrickPfS_iiiS_, %function
_Z20boxFilterOpenCVTrickPfS_iiiS_:
.LFB11834:
	.loc 7 69 0
	.cfi_startproc
.LVL312:
.LBB913:
	.loc 7 71 0
	cmp	w3, 0
	ble	.L247
.LBE913:
	.loc 7 69 0
	stp	x29, x30, [sp, -96]!
	.cfi_def_cfa_offset 96
	.cfi_offset 29, -96
	.cfi_offset 30, -88
	cmp	w2, 0
	sxtw	x30, w2
	add	x29, sp, 0
	.cfi_def_cfa_register 29
	stp	x19, x20, [sp, 16]
	stp	x21, x22, [sp, 32]
	.cfi_offset 19, -80
	.cfi_offset 20, -72
	.cfi_offset 21, -64
	.cfi_offset 22, -56
	neg	w21, w4
	stp	x23, x24, [sp, 48]
	stp	x25, x26, [sp, 64]
	stp	x27, x28, [sp, 80]
	.cfi_offset 23, -48
	.cfi_offset 24, -40
	.cfi_offset 25, -32
	.cfi_offset 26, -24
	.cfi_offset 27, -16
	.cfi_offset 28, -8
	ble	.L214
	mov	x15, x5
	mov	x8, x0
	lsl	x16, x30, 2
	lsl	w10, w21, 1
	add	w12, w2, w4
.LBB924:
.LBB914:
.LBB915:
.LBB916:
	.loc 7 80 0
	sub	w11, w3, #1
.LBE916:
.LBE915:
.LBE914:
	.loc 7 71 0
	mov	w13, 0
.LVL313:
	.p2align 3
.L219:
	mov	x9, x15
	mov	w7, w4
.LVL314:
	.p2align 3
.L218:
	adds	w0, w7, w10
.LVL315:
.LBB922:
.LBB920:
.LBB918:
	.loc 7 82 0
	movi	v0.2s, #0
	csel	w0, w0, wzr, pl
.LVL316:
	.loc 7 80 0
	cmp	w3, w7
	csel	w6, w11, w7, le
.LVL317:
.LBB917:
	.loc 7 83 0
	cmp	w6, w0
	blt	.L216
	sxtw	x0, w0
.LVL318:
	.p2align 3
.L217:
	.loc 7 85 0 discriminator 2
	ldr	s1, [x8, x0, lsl 2]
	add	x0, x0, 1
.LVL319:
	.loc 7 83 0 discriminator 2
	cmp	w6, w0
	.loc 7 85 0 discriminator 2
	fadd	s0, s0, s1
.LVL320:
	.loc 7 83 0 discriminator 2
	bge	.L217
.LVL321:
.L216:
	add	w7, w7, 1
.LVL322:
.LBE917:
	.loc 7 87 0 discriminator 2
	str	s0, [x9], 4
.LVL323:
.LBE918:
	.loc 7 74 0 discriminator 2
	cmp	w7, w12
	bne	.L218
.LBE920:
.LBE922:
	.loc 7 71 0
	add	w13, w13, 1
.LVL324:
	add	x15, x15, x16
	add	x8, x8, x16
	cmp	w3, w13
	bne	.L219
.LVL325:
.L214:
	mov	w14, w4
	lsl	x16, x30, 2
	mov	x12, x5
	add	x17, x5, 16
	add	w24, w3, w4
	lsl	w21, w21, 1
.LBE924:
.LBB925:
.LBB926:
	.loc 7 100 0
	sub	w23, w3, #1
.LBE926:
.LBE925:
.LBB933:
.LBB923:
.LBB921:
.LBB919:
	.loc 7 82 0
	mov	w20, 1
	mov	x18, 0
.LVL326:
	.p2align 3
.L229:
	adds	w10, w14, w21
	sub	w13, w20, #1
.LVL327:
	csel	w10, w10, wzr, pl
.LVL328:
.LBE919:
.LBE921:
.LBE923:
.LBE933:
.LBB934:
.LBB931:
	.loc 7 100 0
	cmp	w3, w14
	csel	w15, w23, w14, le
.LVL329:
.LBB927:
	.loc 7 114 0
	cmp	w10, w15
	bgt	.L221
	cmp	w2, 0
	ble	.L221
	mul	w11, w10, w2
.LBB928:
	.loc 7 118 0
	add	w19, w20, 1
	add	w15, w15, 1
.LVL330:
	add	x22, x5, x20, sxtw 2
	mov	w9, w11
	add	x19, x5, x19, sxtw 2
	sxtw	x11, w11
	add	x7, x1, x11, lsl 2
.LVL331:
	.p2align 3
.L228:
	add	x0, x7, 16
	sub	x8, x7, x1
	cmp	x12, x0
	ccmp	x17, x7, 0, cc
	ccmp	w2, 6, 0, ls
	bls	.L231
	neg	x0, x7, lsr 2
	.loc 7 116 0
	mov	w26, 0
	ands	w0, w0, 3
	beq	.L223
	.loc 7 118 0
	ldr	s0, [x7]
	.loc 7 116 0
	mov	w26, 1
	.loc 7 118 0
	ldr	s1, [x12]
	cmp	w0, w26
	fadd	s0, s0, s1
	str	s0, [x7]
.LVL332:
	beq	.L223
	add	w4, w9, w26
	ldr	s1, [x22]
	.loc 7 116 0
	mov	w26, 2
	cmp	w0, w26
	.loc 7 118 0
	sxtw	x4, w4
	ldr	s0, [x1, x4, lsl 2]
	fadd	s0, s0, s1
	str	s0, [x1, x4, lsl 2]
.LVL333:
	beq	.L223
	add	w4, w9, w26
	ldr	s1, [x19]
	.loc 7 116 0
	mov	w26, 3
	.loc 7 118 0
	sxtw	x4, w4
	ldr	s0, [x1, x4, lsl 2]
	fadd	s0, s0, s1
	str	s0, [x1, x4, lsl 2]
.LVL334:
.L223:
	uxtw	x6, w0
	sub	w25, w2, w0
	add	x28, x6, x11
	.loc 7 116 0
	mov	x0, 0
	lsl	x6, x6, 2
	lsr	w27, w25, 2
	add	x8, x6, x8
	add	x6, x6, x18
	add	x28, x1, x28, lsl 2
	add	x6, x5, x6
	add	x8, x1, x8
	mov	w4, 0
	.p2align 3
.L225:
	.loc 7 118 0 discriminator 2
	ldr	q1, [x6, x0]
	add	w4, w4, 1
	ldr	q0, [x28, x0]
	cmp	w27, w4
	fadd	v0.4s, v0.4s, v1.4s
	str	q0, [x8, x0]
	add	x0, x0, 16
	bhi	.L225
	and	w0, w25, -4
	add	w26, w0, w26
	cmp	w25, w0
	beq	.L227
.LVL335:
	.loc 7 118 0 is_stmt 0
	add	w4, w9, w26
	add	w6, w26, w13
	.loc 7 116 0 is_stmt 1
	add	w0, w26, 1
.LVL336:
	.loc 7 118 0
	sxtw	x4, w4
	.loc 7 116 0
	cmp	w2, w0
	.loc 7 118 0
	ldr	s1, [x5, w6, sxtw 2]
	ldr	s0, [x1, x4, lsl 2]
	fadd	s0, s0, s1
	str	s0, [x1, x4, lsl 2]
	.loc 7 116 0
	ble	.L227
	.loc 7 118 0
	add	w6, w9, w0
	add	w0, w0, w13
.LVL337:
	.loc 7 116 0
	add	w4, w26, 2
.LVL338:
	.loc 7 118 0
	sxtw	x6, w6
	.loc 7 116 0
	cmp	w2, w4
	.loc 7 118 0
	ldr	s1, [x5, w0, sxtw 2]
	ldr	s0, [x1, x6, lsl 2]
	fadd	s0, s0, s1
	str	s0, [x1, x6, lsl 2]
	.loc 7 116 0
	ble	.L227
	.loc 7 118 0
	add	w6, w9, w4
	add	w4, w4, w13
.LVL339:
	.loc 7 116 0
	add	w0, w26, 3
.LVL340:
	.loc 7 118 0
	sxtw	x6, w6
	.loc 7 116 0
	cmp	w2, w0
	.loc 7 118 0
	ldr	s1, [x5, w4, sxtw 2]
	ldr	s0, [x1, x6, lsl 2]
	fadd	s0, s0, s1
	str	s0, [x1, x6, lsl 2]
	.loc 7 116 0
	ble	.L227
	.loc 7 118 0
	add	w6, w9, w0
	add	w0, w0, w13
.LVL341:
	.loc 7 116 0
	add	w4, w26, 4
.LVL342:
	.loc 7 118 0
	sxtw	x6, w6
	.loc 7 116 0
	cmp	w2, w4
	.loc 7 118 0
	ldr	s1, [x5, w0, sxtw 2]
	ldr	s0, [x1, x6, lsl 2]
	fadd	s0, s0, s1
	str	s0, [x1, x6, lsl 2]
	.loc 7 116 0
	ble	.L227
	.loc 7 118 0
	add	w6, w9, w4
	add	w4, w4, w13
.LVL343:
	.loc 7 116 0
	add	w0, w26, 5
	.loc 7 118 0
	sxtw	x6, w6
	.loc 7 116 0
	cmp	w2, w0
	.loc 7 118 0
	ldr	s1, [x5, w4, sxtw 2]
	ldr	s0, [x1, x6, lsl 2]
	fadd	s0, s0, s1
	str	s0, [x1, x6, lsl 2]
.LVL344:
	.loc 7 116 0
	ble	.L227
	.loc 7 118 0
	add	w4, w9, w0
	add	w0, w0, w13
	sxtw	x4, w4
	ldr	s1, [x5, w0, sxtw 2]
	ldr	s0, [x1, x4, lsl 2]
	fadd	s0, s0, s1
	str	s0, [x1, x4, lsl 2]
.LVL345:
.L227:
.LBE928:
	.loc 7 114 0
	add	w10, w10, 1
.LVL346:
	add	x7, x7, x16
	add	w9, w9, w2
	add	x11, x11, x30
	cmp	w10, w15
	bne	.L228
.LVL347:
.L221:
	add	w14, w14, 1
.LVL348:
	add	x12, x12, x16
	add	x17, x17, x16
	add	x18, x18, x16
	add	w20, w20, w2
.LBE927:
.LBE931:
	.loc 7 92 0
	cmp	w14, w24
	bne	.L229
.LBE934:
	.loc 7 123 0
	ldp	x19, x20, [sp, 16]
	ldp	x21, x22, [sp, 32]
.LVL349:
	ldp	x23, x24, [sp, 48]
.LVL350:
	ldp	x25, x26, [sp, 64]
	ldp	x27, x28, [sp, 80]
	ldp	x29, x30, [sp], 96
	.cfi_remember_state
	.cfi_restore 30
	.cfi_restore 29
	.cfi_restore 27
	.cfi_restore 28
	.cfi_restore 25
	.cfi_restore 26
	.cfi_restore 23
	.cfi_restore 24
	.cfi_restore 21
	.cfi_restore 22
	.cfi_restore 19
	.cfi_restore 20
	.cfi_def_cfa 31, 0
	ret
.LVL351:
	.p2align 2
.L231:
	.cfi_restore_state
.LBB935:
.LBB932:
.LBB930:
.LBB929:
	.loc 7 118 0
	mov	x0, 0
.LVL352:
	.p2align 3
.L222:
	ldr	s0, [x7, x0, lsl 2]
	ldr	s1, [x12, x0, lsl 2]
	fadd	s0, s0, s1
	str	s0, [x7, x0, lsl 2]
.LVL353:
	add	x0, x0, 1
.LVL354:
	.loc 7 116 0
	cmp	w2, w0
	bgt	.L222
	b	.L227
.LVL355:
.L247:
	.cfi_def_cfa 31, 0
	.cfi_restore 19
	.cfi_restore 20
	.cfi_restore 21
	.cfi_restore 22
	.cfi_restore 23
	.cfi_restore 24
	.cfi_restore 25
	.cfi_restore 26
	.cfi_restore 27
	.cfi_restore 28
	.cfi_restore 29
	.cfi_restore 30
	ret
.LBE929:
.LBE930:
.LBE932:
.LBE935:
	.cfi_endproc
.LFE11834:
	.size	_Z20boxFilterOpenCVTrickPfS_iiiS_, .-_Z20boxFilterOpenCVTrickPfS_iiiS_
	.align	2
	.p2align 3,,7
	.global	_Z21boxFilterOpencvTrick2PfS_iiiS_
	.type	_Z21boxFilterOpencvTrick2PfS_iiiS_, %function
_Z21boxFilterOpencvTrick2PfS_iiiS_:
.LFB11835:
	.loc 7 127 0
	.cfi_startproc
.LVL356:
	stp	x29, x30, [sp, -48]!
	.cfi_def_cfa_offset 48
	.cfi_offset 29, -48
	.cfi_offset 30, -40
.LBB936:
	.loc 7 128 0
	cmp	w3, 0
.LBE936:
	.loc 7 127 0
	add	x29, sp, 0
	.cfi_def_cfa_register 29
.LBB945:
	.loc 7 128 0
	ble	.L263
	sub	w17, w2, w4
	sxtw	x9, w4
	sub	w14, w2, #1
	stp	x19, x20, [x29, 16]
	.cfi_offset 20, -24
	.cfi_offset 19, -32
	sxtw	x18, w17
	neg	x20, x9
.LBB937:
	.loc 7 146 0
	add	w30, w4, 1
	sub	w15, w4, #1
	sub	w14, w14, w17
	sub	x15, x15, x9
	add	x14, x14, x18
	lsl	x19, x20, 3
	stp	x21, x22, [x29, 32]
	.cfi_offset 22, -8
	.cfi_offset 21, -16
	lsl	x18, x18, 2
	sxtw	x21, w30
	add	x22, x18, x19
	lsl	x15, x15, 2
	lsl	x14, x14, 2
	uxtw	x12, w4
	add	x8, x0, x9, lsl 2
	.loc 7 147 0
	sub	w10, w17, #1
	sbfiz	x16, x2, 2, 32
	mov	x7, x5
	lsl	x20, x20, 2
	add	x19, x19, x21, lsl 2
	lsl	x9, x9, 3
	add	x12, x12, 1
	add	x15, x15, 4
	sub	x22, x22, #4
	add	x14, x14, 4
.LBE937:
	.loc 7 128 0
	mov	w13, 0
.LVL357:
	.p2align 3
.L264:
.LBB943:
	.loc 7 133 0
	movi	v0.2s, #0
	add	x0, x8, x20
	add	x6, x15, x8
.LBB938:
	.loc 7 134 0
	cmp	w4, 0
	ble	.L288
.LVL358:
	.p2align 3
.L257:
	.loc 7 136 0 discriminator 2
	ldr	s1, [x0], 4
	fadd	s0, s0, s1
.LVL359:
	.loc 7 134 0 discriminator 2
	cmp	x6, x0
	bne	.L257
.LVL360:
.L256:
.LBE938:
	.loc 7 133 0
	mov	x0, 0
.LVL361:
	.p2align 3
.L258:
.LBB939:
	.loc 7 141 0 discriminator 2
	ldr	s1, [x8, x0, lsl 2]
	fadd	s0, s0, s1
.LVL362:
	.loc 7 142 0 discriminator 2
	str	s0, [x7, x0, lsl 2]
.LVL363:
	add	x0, x0, 1
.LVL364:
	.loc 7 139 0 discriminator 2
	cmp	x12, x0
	bne	.L258
.LVL365:
.L255:
.LBE939:
.LBB940:
	.loc 7 148 0
	cmp	w30, w10
	bgt	.L259
	add	x6, x8, x19
	mov	x0, x21
.LVL366:
	.p2align 3
.L260:
	.loc 7 150 0 discriminator 2
	ldr	s2, [x6, x9]
	add	x6, x6, 4
	.loc 7 151 0 discriminator 2
	ldr	s1, [x6, -8]
	.loc 7 150 0 discriminator 2
	fadd	s0, s0, s2
.LVL367:
	.loc 7 151 0 discriminator 2
	fsub	s0, s0, s1
.LVL368:
	.loc 7 152 0 discriminator 2
	str	s0, [x7, x0, lsl 2]
.LVL369:
	add	x0, x0, 1
.LVL370:
	.loc 7 148 0 discriminator 2
	cmp	w10, w0
	bge	.L260
.L259:
.LVL371:
.LBE940:
.LBB941:
	.loc 7 156 0
	cmp	w2, w17
	ble	.L261
	add	x6, x22, x8
	add	x0, x18, x7
	add	x11, x14, x7
.LVL372:
	.p2align 3
.L262:
	.loc 7 158 0 discriminator 2
	ldr	s1, [x6], 4
	fsub	s0, s0, s1
.LVL373:
	.loc 7 159 0 discriminator 2
	str	s0, [x0], 4
	.loc 7 156 0 discriminator 2
	cmp	x0, x11
	bne	.L262
.L261:
.LBE941:
.LBE943:
	.loc 7 128 0
	add	w13, w13, 1
.LVL374:
	add	x8, x8, x16
	add	x7, x7, x16
	cmp	w3, w13
	bne	.L264
	ldp	x19, x20, [x29, 16]
	.cfi_restore 20
	.cfi_restore 19
	ldp	x21, x22, [x29, 32]
	.cfi_restore 22
	.cfi_restore 21
.LVL375:
.L263:
.LBE945:
.LBB946:
	.loc 7 164 0
	cmp	w2, 0
	ble	.L250
.LBB947:
.LBB948:
	.loc 7 192 0
	sub	w13, w3, w4
.LBE948:
	.loc 7 180 0
	add	w12, w4, 1
	sub	w7, w13, w4
	lsl	w0, w4, 1
	sub	w7, w7, #1
	mul	w9, w2, w4
	mul	w10, w2, w13
	sub	w15, w2, #1
	mul	w8, w2, w12
	add	x16, x5, 4
	madd	w0, w0, w2, w2
	.loc 7 181 0
	mvn	w14, w4
	mul	w7, w7, w2
	mov	x6, x5
	mov	x11, x1
	add	x10, x1, x10, sxtw 2
	add	x9, x5, x9, sxtw 2
	add	x8, x1, x8, sxtw 2
	add	x7, x5, x7, sxtw 2
	add	w14, w14, w3
	add	x5, x5, x0, sxtw 2
.LVL376:
	add	x15, x16, x15, uxtw 2
	sbfiz	x1, x2, 2, 32
.LVL377:
	.p2align 3
.L273:
	.loc 7 166 0
	movi	v0.2s, #0
.LBB949:
	.loc 7 168 0
	mov	x2, x6
	mov	w0, 0
	cmp	w4, 0
	ble	.L289
.LVL378:
	.p2align 3
.L265:
	.loc 7 170 0 discriminator 2
	ldr	s1, [x2]
	.loc 7 168 0 discriminator 2
	add	w0, w0, 1
.LVL379:
	cmp	w4, w0
	add	x2, x2, x1
	.loc 7 170 0 discriminator 2
	fadd	s0, s0, s1
.LVL380:
	.loc 7 168 0 discriminator 2
	bne	.L265
.LVL381:
.L267:
.LBE949:
	.loc 7 166 0
	mov	x0, 0
.LBB950:
	.loc 7 173 0
	mov	w2, 0
.LVL382:
	.p2align 3
.L268:
	.loc 7 175 0 discriminator 2
	ldr	s1, [x9, x0]
	.loc 7 173 0 discriminator 2
	add	w2, w2, 1
.LVL383:
	cmp	w2, w12
	.loc 7 175 0 discriminator 2
	fadd	s0, s0, s1
.LVL384:
	.loc 7 176 0 discriminator 2
	str	s0, [x11, x0]
	add	x0, x0, x1
	.loc 7 173 0 discriminator 2
	bne	.L268
.LVL385:
.L266:
.LBE950:
.LBB951:
	.loc 7 183 0
	cmp	w12, w14
	bgt	.L269
	mov	w2, w12
	mov	x0, 0
.LVL386:
	.p2align 3
.L270:
	.loc 7 185 0 discriminator 2
	ldr	s2, [x5, x0]
	.loc 7 183 0 discriminator 2
	add	w2, w2, 1
.LVL387:
	.loc 7 186 0 discriminator 2
	ldr	s1, [x6, x0]
	.loc 7 183 0 discriminator 2
	cmp	w14, w2
	.loc 7 185 0 discriminator 2
	fadd	s0, s0, s2
.LVL388:
	.loc 7 186 0 discriminator 2
	fsub	s0, s0, s1
.LVL389:
	.loc 7 187 0 discriminator 2
	str	s0, [x8, x0]
	add	x0, x0, x1
	.loc 7 183 0 discriminator 2
	bge	.L270
.LVL390:
.L269:
.LBE951:
.LBB952:
	.loc 7 192 0
	cmp	w3, w13
	ble	.L271
	mov	w2, w13
	mov	x0, 0
.LVL391:
	.p2align 3
.L272:
	.loc 7 194 0 discriminator 2
	ldr	s1, [x7, x0]
	.loc 7 192 0 discriminator 2
	add	w2, w2, 1
.LVL392:
	cmp	w3, w2
	.loc 7 194 0 discriminator 2
	fsub	s0, s0, s1
.LVL393:
	.loc 7 195 0 discriminator 2
	str	s0, [x10, x0]
	add	x0, x0, x1
	.loc 7 192 0 discriminator 2
	bne	.L272
.LVL394:
.L271:
	add	x6, x6, 4
	add	x7, x7, 4
	add	x10, x10, 4
	add	x9, x9, 4
	add	x11, x11, 4
	add	x5, x5, 4
	add	x8, x8, 4
.LBE952:
.LBE947:
	.loc 7 164 0
	cmp	x15, x6
	bne	.L273
.LVL395:
.L250:
.LBE946:
	.loc 7 198 0
	ldp	x29, x30, [sp], 48
	.cfi_remember_state
	.cfi_restore 30
	.cfi_restore 29
	.cfi_def_cfa 31, 0
	ret
.LVL396:
	.p2align 2
.L289:
	.cfi_restore_state
.LBB955:
.LBB954:
.LBB953:
	.loc 7 173 0
	blt	.L266
	b	.L267
.LVL397:
	.p2align 2
.L288:
	.cfi_offset 19, -32
	.cfi_offset 20, -24
	.cfi_offset 21, -16
	.cfi_offset 22, -8
.LBE953:
.LBE954:
.LBE955:
.LBB956:
.LBB944:
.LBB942:
	.loc 7 139 0
	blt	.L255
	b	.L256
.LBE942:
.LBE944:
.LBE956:
	.cfi_endproc
.LFE11835:
	.size	_Z21boxFilterOpencvTrick2PfS_iiiS_, .-_Z21boxFilterOpencvTrick2PfS_iiiS_
	.align	2
	.p2align 3,,7
	.global	_Z21boxFilterOpenCVTrick3PfS_iiiS_
	.type	_Z21boxFilterOpenCVTrick3PfS_iiiS_, %function
_Z21boxFilterOpenCVTrick3PfS_iiiS_:
.LFB11836:
	.loc 7 202 0
	.cfi_startproc
.LVL398:
	stp	x29, x30, [sp, -112]!
	.cfi_def_cfa_offset 112
	.cfi_offset 29, -112
	.cfi_offset 30, -104
.LBB1021:
	.loc 7 204 0
	cmp	w3, 0
.LBE1021:
	.loc 7 202 0
	add	x29, sp, 0
	.cfi_def_cfa_register 29
	stp	x19, x20, [sp, 16]
	.cfi_offset 19, -96
	.cfi_offset 20, -88
	mov	w19, w2
	stp	x21, x22, [sp, 32]
	mov	x20, x5
	stp	x23, x24, [sp, 48]
	.cfi_offset 21, -80
	.cfi_offset 22, -72
	.cfi_offset 23, -64
	.cfi_offset 24, -56
	mov	x21, x1
	stp	x25, x26, [sp, 64]
	mov	w23, w3
	mov	w22, w4
	sxtw	x24, w2
	.cfi_offset 25, -48
	.cfi_offset 26, -40
.LBB1030:
	.loc 7 204 0
	ble	.L291
	sub	w13, w2, w4
	sub	w14, w2, #1
.LBB1022:
	.loc 7 221 0
	add	w15, w4, 1
	sxtw	x1, w4
.LVL399:
	sxtw	x2, w13
.LVL400:
	sub	w12, w14, w13
	add	x12, x12, x2
	sxtw	x18, w15
	neg	x1, x1, lsl 2
	sub	w17, w4, #1
	lsl	x14, x2, 2
	sxtw	x24, w19
	add	x16, x1, x18, lsl 2
	uxtw	x6, w4
	mov	x2, 4
	add	x1, x14, x1
	lsl	x12, x12, 2
	add	x17, x2, x17, uxtw 2
	.loc 7 222 0
	sub	w4, w13, #1
.LVL401:
	lsl	x11, x24, 2
	mov	x7, x0
	mov	x2, x5
	add	x6, x6, 1
	sub	x16, x16, #4
	sub	x10, x1, #4
	add	x12, x12, 4
	mov	w8, w22
.LBE1022:
	.loc 7 204 0
	mov	w9, 0
.LVL402:
	.p2align 3
.L301:
.LBB1028:
	.loc 7 206 0
	movi	v0.2s, #0
	add	x3, x17, x7
.LBB1023:
	.loc 7 209 0
	mov	x1, x7
	cmp	w22, 0
	ble	.L400
.LVL403:
	.p2align 3
.L295:
	.loc 7 211 0 discriminator 2
	ldr	s1, [x1], 4
	fadd	s0, s0, s1
.LVL404:
	.loc 7 209 0 discriminator 2
	cmp	x1, x3
	bne	.L295
.LVL405:
.L294:
	add	x3, x0, x8, sxtw 2
.LBE1023:
	.loc 7 206 0
	mov	x1, 0
.LVL406:
	.p2align 3
.L296:
.LBB1024:
	.loc 7 216 0 discriminator 2
	ldr	s1, [x3, x1, lsl 2]
	fadd	s0, s0, s1
.LVL407:
	.loc 7 217 0 discriminator 2
	str	s0, [x2, x1, lsl 2]
.LVL408:
	add	x1, x1, 1
.LVL409:
	.loc 7 214 0 discriminator 2
	cmp	x1, x6
	bne	.L296
.LVL410:
.L293:
.LBE1024:
.LBB1025:
	.loc 7 223 0
	cmp	w15, w4
	bgt	.L297
	add	x3, x16, x7
	add	x5, x0, x8, sxtw 2
	mov	x1, x18
.LVL411:
	.p2align 3
.L298:
	.loc 7 225 0 discriminator 2
	ldr	s1, [x5, x1, lsl 2]
	.loc 7 226 0 discriminator 2
	ldr	s2, [x3], 4
	.loc 7 225 0 discriminator 2
	fadd	s0, s0, s1
.LVL412:
	.loc 7 226 0 discriminator 2
	fsub	s0, s0, s2
.LVL413:
	.loc 7 227 0 discriminator 2
	str	s0, [x2, x1, lsl 2]
.LVL414:
	add	x1, x1, 1
.LVL415:
	.loc 7 223 0 discriminator 2
	cmp	w4, w1
	bge	.L298
.L297:
.LVL416:
.LBE1025:
.LBB1026:
	.loc 7 231 0
	cmp	w19, w13
	ble	.L299
	add	x3, x10, x7
	add	x1, x2, x14
	add	x5, x12, x2
.LVL417:
	.p2align 3
.L300:
	.loc 7 233 0 discriminator 2
	ldr	s1, [x3], 4
	fsub	s0, s0, s1
.LVL418:
	.loc 7 234 0 discriminator 2
	str	s0, [x1], 4
	.loc 7 231 0 discriminator 2
	cmp	x1, x5
	bne	.L300
.L299:
.LBE1026:
.LBE1028:
	.loc 7 204 0
	add	w9, w9, 1
.LVL419:
	add	x7, x7, x11
	add	w8, w8, w19
	add	x2, x2, x11
	cmp	w23, w9
	bne	.L301
.LVL420:
.L291:
.LBE1030:
.LBB1031:
.LBB1032:
.LBB1033:
.LBB1034:
.LBB1035:
	.file 9 "/usr/include/c++/7/bits/stl_vector.h"
	.loc 9 172 0
	cbz	x24, .L350
.LVL421:
.LBB1036:
.LBB1037:
.LBB1038:
	.file 10 "/usr/include/c++/7/ext/new_allocator.h"
	.loc 10 101 0
	mov	x0, 4611686018427387903
.LVL422:
	cmp	x24, x0
	bhi	.L401
	.loc 10 111 0
	lsl	x25, x24, 2
	mov	x0, x25
	bl	_Znwm
.LVL423:
	mov	x2, x25
	mov	w1, 0
	bl	memset
.LVL424:
	mov	x6, x0
.LVL425:
.LBE1038:
.LBE1037:
.LBE1036:
.LBE1035:
.LBE1034:
.LBE1033:
.LBE1032:
.LBE1031:
.LBB1050:
	.loc 7 243 0
	cmp	w22, 0
	ble	.L302
	cmp	w19, 0
	ble	.L314
	lsr	x0, x0, 2
	sub	w14, w19, #1
	neg	x9, x0
	mov	x7, 0
	and	w12, w9, 3
	mov	w4, 0
	sub	w11, w19, w12
	mov	x9, x12
	add	w13, w12, 3
	and	w10, w11, -4
	lsr	w5, w11, 2
	add	x2, x6, x12, lsl 2
	mov	w8, 0
	str	x0, [x29, 104]
.LVL426:
	.p2align 3
.L313:
	cmp	w14, w13
	bcc	.L351
.LBB1051:
.LBB1052:
	.loc 7 246 0
	mov	w15, 0
	cbz	w9, .L308
	.loc 7 248 0
	ldr	s1, [x6]
	.loc 7 246 0
	mov	w15, 1
	.loc 7 248 0
	ldr	s0, [x20, x7, lsl 2]
	cmp	w9, w15
	fadd	s0, s1, s0
	str	s0, [x6]
.LVL427:
	beq	.L308
	add	w0, w4, w15
	ldr	s1, [x6, 4]
	.loc 7 246 0
	mov	w15, 2
	cmp	w9, w15
	.loc 7 248 0
	ldr	s0, [x20, w0, sxtw 2]
	fadd	s0, s1, s0
	str	s0, [x6, 4]
.LVL428:
	beq	.L308
	add	w0, w4, w15
	ldr	s1, [x6, 8]
	.loc 7 246 0
	mov	w15, 3
	.loc 7 248 0
	ldr	s0, [x20, w0, sxtw 2]
	fadd	s0, s1, s0
	str	s0, [x6, 8]
.LVL429:
.L308:
	add	x3, x12, x7
	.loc 7 246 0
	mov	x0, 0
	mov	w1, 0
	add	x3, x20, x3, lsl 2
	.p2align 3
.L310:
	.loc 7 248 0 discriminator 2
	ldr	q1, [x2, x0]
	add	w1, w1, 1
	ldr	q0, [x3, x0]
	cmp	w5, w1
	fadd	v0.4s, v1.4s, v0.4s
	str	q0, [x2, x0]
	add	x0, x0, 16
	bhi	.L310
	add	w0, w15, w10
	cmp	w11, w10
	beq	.L311
.L307:
.LVL430:
	.loc 7 248 0 is_stmt 0
	sxtw	x15, w0
	add	w16, w4, w0
	.loc 7 246 0 is_stmt 1
	add	w3, w0, 1
.LVL431:
	.loc 7 248 0
	lsl	x1, x15, 2
	.loc 7 246 0
	cmp	w19, w3
	.loc 7 248 0
	ldr	s1, [x6, x15, lsl 2]
	ldr	s0, [x20, w16, sxtw 2]
	fadd	s0, s1, s0
	str	s0, [x6, x15, lsl 2]
	.loc 7 246 0
	ble	.L311
	.loc 7 248 0
	add	x16, x1, 4
	add	w3, w4, w3
.LVL432:
	.loc 7 246 0
	add	w15, w0, 2
.LVL433:
	cmp	w19, w15
	.loc 7 248 0
	ldr	s1, [x6, x16]
	ldr	s0, [x20, w3, sxtw 2]
	fadd	s0, s1, s0
	str	s0, [x6, x16]
	.loc 7 246 0
	ble	.L311
	.loc 7 248 0
	add	x16, x1, 8
	add	w15, w4, w15
.LVL434:
	.loc 7 246 0
	add	w3, w0, 3
.LVL435:
	cmp	w19, w3
	.loc 7 248 0
	ldr	s1, [x6, x16]
	ldr	s0, [x20, w15, sxtw 2]
	fadd	s0, s1, s0
	str	s0, [x6, x16]
	.loc 7 246 0
	ble	.L311
	.loc 7 248 0
	add	x16, x1, 12
	add	w3, w4, w3
.LVL436:
	.loc 7 246 0
	add	w15, w0, 4
.LVL437:
	cmp	w19, w15
	.loc 7 248 0
	ldr	s1, [x6, x16]
	ldr	s0, [x20, w3, sxtw 2]
	fadd	s0, s1, s0
	str	s0, [x6, x16]
	.loc 7 246 0
	ble	.L311
	.loc 7 248 0
	add	x3, x1, 16
	add	w15, w4, w15
.LVL438:
	.loc 7 246 0
	add	w0, w0, 5
.LVL439:
	cmp	w19, w0
	.loc 7 248 0
	ldr	s1, [x6, x3]
	ldr	s0, [x20, w15, sxtw 2]
	fadd	s0, s1, s0
	str	s0, [x6, x3]
.LVL440:
	.loc 7 246 0
	ble	.L311
	.loc 7 248 0
	add	x1, x1, 20
	add	w0, w4, w0
.LVL441:
	ldr	s1, [x6, x1]
	ldr	s0, [x20, w0, sxtw 2]
	fadd	s0, s1, s0
	str	s0, [x6, x1]
.L311:
.LBE1052:
.LBE1051:
	.loc 7 243 0
	add	w8, w8, 1
.LVL442:
	add	w4, w4, w19
.LVL443:
	add	x7, x7, x24
	cmp	w22, w8
	bne	.L313
	ldr	x0, [x29, 104]
.LVL444:
.L312:
	neg	x11, x0
	mul	w5, w19, w22
	and	w11, w11, 3
	lsl	x13, x24, 2
	sub	w17, w19, w11
	mov	w9, w5
	ubfiz	x15, x11, 2, 2
	add	x5, x20, x5, sxtw 2
	add	w18, w22, 1
	add	w25, w11, 3
	lsr	w10, w17, 2
	add	x3, x6, x15
	and	w16, w17, -4
.LBB1055:
.LBB1053:
	.loc 7 246 0
	mov	x7, x21
	mov	w8, 0
.LBE1053:
.LBE1055:
.LBE1050:
.LBB1057:
	.loc 7 257 0
	mov	w12, 0
	.p2align 3
.L323:
.LVL445:
	add	x1, x5, 16
	add	x0, x7, 16
	cmp	x7, x1
	sub	x4, x7, x21
	ccmp	x5, x0, 2, cc
	sub	x26, x5, x20
	ccmp	w19, 5, 0, cs
	bls	.L355
.LBB1058:
	.loc 7 259 0
	mov	w2, 0
	cmp	w14, w25
	bcc	.L316
	cbz	w11, .L317
	.loc 7 261 0
	ldr	s0, [x5]
	.loc 7 259 0
	mov	w2, 1
	.loc 7 261 0
	ldr	s1, [x6]
	cmp	w11, w2
	fadd	s0, s1, s0
	str	s0, [x6]
	.loc 7 262 0
	str	s0, [x7]
.LVL446:
	beq	.L317
	.loc 7 261 0
	add	w0, w9, w2
	ldr	s0, [x6, 4]
	cmp	w11, 2
	ldr	s1, [x20, w0, sxtw 2]
	.loc 7 262 0
	add	w0, w8, w2
	.loc 7 259 0
	mov	w2, 2
	.loc 7 261 0
	fadd	s0, s1, s0
	.loc 7 262 0
	str	s0, [x21, w0, sxtw 2]
.LVL447:
	.loc 7 261 0
	str	s0, [x6, 4]
	beq	.L317
	add	w0, w9, w2
	ldr	s0, [x6, 8]
	ldr	s1, [x20, w0, sxtw 2]
	.loc 7 262 0
	add	w0, w8, w2
	.loc 7 259 0
	mov	w2, 3
	.loc 7 261 0
	fadd	s0, s1, s0
	.loc 7 262 0
	str	s0, [x21, w0, sxtw 2]
.LVL448:
	.loc 7 261 0
	str	s0, [x6, 8]
.LVL449:
.L317:
	add	x26, x15, x26
	add	x4, x15, x4
	add	x26, x20, x26
	add	x4, x21, x4
	.loc 7 259 0
	mov	x0, 0
	mov	w1, 0
	.p2align 3
.L319:
	.loc 7 261 0 discriminator 2
	ldr	q1, [x26, x0]
	add	w1, w1, 1
	ldr	q0, [x3, x0]
	cmp	w10, w1
	fadd	v0.4s, v1.4s, v0.4s
	str	q0, [x3, x0]
	.loc 7 262 0 discriminator 2
	str	q0, [x4, x0]
	add	x0, x0, 16
	bhi	.L319
	add	w2, w2, w16
	cmp	w17, w16
	beq	.L321
.L316:
.LVL450:
	.loc 7 261 0
	sxtw	x1, w2
	add	w4, w9, w2
	.loc 7 262 0
	add	w26, w8, w2
	.loc 7 261 0
	lsl	x0, x1, 2
	ldr	s0, [x6, x1, lsl 2]
	ldr	s1, [x20, w4, sxtw 2]
	fadd	s0, s1, s0
	str	s0, [x6, x1, lsl 2]
	.loc 7 259 0
	add	w1, w2, 1
.LVL451:
	.loc 7 262 0
	str	s0, [x21, w26, sxtw 2]
	.loc 7 259 0
	cmp	w19, w1
	ble	.L321
	.loc 7 261 0
	add	x4, x0, 4
	add	w26, w9, w1
	.loc 7 262 0
	add	w1, w8, w1
.LVL452:
	.loc 7 261 0
	ldr	s0, [x6, x4]
	ldr	s1, [x20, w26, sxtw 2]
	fadd	s0, s1, s0
	str	s0, [x6, x4]
	.loc 7 259 0
	add	w4, w2, 2
.LVL453:
	.loc 7 262 0
	str	s0, [x21, w1, sxtw 2]
	.loc 7 259 0
	cmp	w19, w4
	ble	.L321
	.loc 7 261 0
	add	x1, x0, 8
	add	w26, w9, w4
	.loc 7 262 0
	add	w4, w8, w4
.LVL454:
	.loc 7 261 0
	ldr	s0, [x6, x1]
	ldr	s1, [x20, w26, sxtw 2]
	fadd	s0, s1, s0
	str	s0, [x6, x1]
	.loc 7 259 0
	add	w1, w2, 3
.LVL455:
	.loc 7 262 0
	str	s0, [x21, w4, sxtw 2]
	.loc 7 259 0
	cmp	w19, w1
	ble	.L321
	.loc 7 261 0
	add	x4, x0, 12
	add	w26, w9, w1
	.loc 7 262 0
	add	w1, w8, w1
.LVL456:
	.loc 7 261 0
	ldr	s0, [x6, x4]
	ldr	s1, [x20, w26, sxtw 2]
	fadd	s0, s1, s0
	.loc 7 262 0
	str	s0, [x21, w1, sxtw 2]
	.loc 7 259 0
	add	w1, w2, 4
.LVL457:
	.loc 7 261 0
	str	s0, [x6, x4]
	.loc 7 259 0
	cmp	w19, w1
	ble	.L321
	.loc 7 261 0
	add	x4, x0, 16
	add	w26, w9, w1
	.loc 7 262 0
	add	w1, w8, w1
.LVL458:
	.loc 7 259 0
	add	w2, w2, 5
.LVL459:
	cmp	w19, w2
	.loc 7 261 0
	ldr	s0, [x6, x4]
	ldr	s1, [x20, w26, sxtw 2]
	fadd	s0, s1, s0
	str	s0, [x6, x4]
	.loc 7 262 0
	str	s0, [x21, w1, sxtw 2]
.LVL460:
	.loc 7 259 0
	ble	.L321
	.loc 7 261 0
	add	x0, x0, 20
	add	w1, w9, w2
	.loc 7 262 0
	add	w2, w8, w2
.LVL461:
	.loc 7 261 0
	ldr	s0, [x6, x0]
	ldr	s1, [x20, w1, sxtw 2]
	fadd	s0, s1, s0
	str	s0, [x6, x0]
	.loc 7 262 0
	str	s0, [x21, w2, sxtw 2]
.L321:
.LBE1058:
	.loc 7 257 0
	add	w12, w12, 1
.LVL462:
	add	x7, x7, x13
	add	x5, x5, x13
	add	w9, w9, w19
	add	w8, w8, w19
	cmp	w12, w18
	bne	.L323
.LVL463:
.LBE1057:
	.loc 7 269 0
	sub	w17, w23, w22
.LVL464:
.LBB1061:
	.loc 7 270 0
	cmp	w17, w12
	ble	.L346
	stp	x27, x28, [x29, 80]
	.cfi_offset 28, -24
	.cfi_offset 27, -32
.LVL465:
.L347:
	add	w13, w12, w22
	ldr	x0, [x29, 104]
	mul	w15, w12, w19
.LBE1061:
.LBB1066:
.LBB1059:
	.loc 7 262 0
	str	w22, [x29, 100]
	neg	x25, x0
	lsl	x30, x24, 2
	and	w25, w25, 3
	mul	w13, w13, w19
	sxtw	x9, w15
	sub	w28, w19, w25
	add	x18, x9, 4
	ubfiz	x26, x25, 2, 2
	add	w0, w25, 3
	add	x9, x21, x9, lsl 2
	add	x11, x20, x13, sxtw 2
	add	x18, x21, x18, lsl 2
	mov	x10, x20
	lsr	w3, w28, 2
	add	x4, x6, x26
	and	w27, w28, -4
	mov	w22, w0
.LVL466:
	mov	w16, 0
.LVL467:
	.p2align 3
.L336:
	add	x0, x10, 16
	add	x1, x11, 16
	cmp	x9, x0
	sub	x5, x9, x21
	ccmp	x10, x18, 2, cc
	sub	x8, x11, x20
	cset	w0, cs
	cmp	x9, x1
	ccmp	x11, x18, 2, cc
	sub	x7, x10, x20
	cset	w1, cs
	cmp	w19, 5
	and	w0, w0, w1
	cset	w1, hi
	tst	w1, w0
	beq	.L360
.LBE1059:
.LBE1066:
.LBB1067:
.LBB1062:
.LBB1063:
	.loc 7 273 0
	mov	w2, 0
	cmp	w22, w14
	bhi	.L329
	cbz	w25, .L330
	.loc 7 275 0
	ldr	s2, [x6]
	cmp	w25, 1
	ldr	s0, [x11]
	.loc 7 273 0
	mov	w2, 1
	.loc 7 276 0
	ldr	s1, [x10]
	.loc 7 275 0
	fadd	s0, s2, s0
	.loc 7 276 0
	fsub	s0, s0, s1
	str	s0, [x6]
	.loc 7 277 0
	str	s0, [x9]
.LVL468:
	beq	.L330
	.loc 7 275 0
	add	w0, w13, w2
	ldr	s0, [x6, 4]
	cmp	w25, 2
	ldr	s1, [x20, w0, sxtw 2]
	.loc 7 276 0
	add	w0, w16, w2
	.loc 7 275 0
	fadd	s1, s1, s0
	.loc 7 276 0
	ldr	s0, [x20, w0, sxtw 2]
	.loc 7 277 0
	add	w0, w15, w2
	.loc 7 273 0
	mov	w2, 2
	.loc 7 276 0
	fsub	s0, s1, s0
	.loc 7 277 0
	str	s0, [x21, w0, sxtw 2]
.LVL469:
	.loc 7 276 0
	str	s0, [x6, 4]
	beq	.L330
	.loc 7 275 0
	add	w0, w13, w2
	ldr	s0, [x6, 8]
	ldr	s1, [x20, w0, sxtw 2]
	.loc 7 276 0
	add	w0, w16, w2
	.loc 7 275 0
	fadd	s1, s1, s0
	.loc 7 276 0
	ldr	s0, [x20, w0, sxtw 2]
	.loc 7 277 0
	add	w0, w15, w2
	.loc 7 273 0
	mov	w2, 3
	.loc 7 276 0
	fsub	s0, s1, s0
	.loc 7 277 0
	str	s0, [x21, w0, sxtw 2]
.LVL470:
	.loc 7 276 0
	str	s0, [x6, 8]
.LVL471:
.L330:
	add	x8, x26, x8
	add	x7, x26, x7
	add	x5, x26, x5
	add	x8, x20, x8
	add	x7, x20, x7
	add	x5, x21, x5
	.loc 7 273 0
	mov	x0, 0
	mov	w1, 0
	.p2align 3
.L332:
	.loc 7 275 0 discriminator 2
	ldr	q2, [x8, x0]
	add	w1, w1, 1
	ldr	q0, [x4, x0]
	cmp	w3, w1
	.loc 7 276 0 discriminator 2
	ldr	q1, [x7, x0]
	.loc 7 275 0 discriminator 2
	fadd	v0.4s, v2.4s, v0.4s
	.loc 7 276 0 discriminator 2
	fsub	v0.4s, v0.4s, v1.4s
	str	q0, [x4, x0]
	.loc 7 277 0 discriminator 2
	str	q0, [x5, x0]
	add	x0, x0, 16
	bhi	.L332
	add	w2, w27, w2
	cmp	w27, w28
	beq	.L334
.L329:
.LVL472:
	.loc 7 275 0
	sxtw	x0, w2
	add	w1, w13, w2
	ldr	s0, [x6, x0, lsl 2]
	ldr	s1, [x20, w1, sxtw 2]
	.loc 7 276 0
	add	w1, w16, w2
	.loc 7 275 0
	fadd	s1, s1, s0
	.loc 7 276 0
	ldr	s0, [x20, w1, sxtw 2]
	.loc 7 277 0
	add	w1, w2, w15
	.loc 7 276 0
	fsub	s0, s1, s0
	str	s0, [x6, x0, lsl 2]
	.loc 7 275 0
	lsl	x0, x0, 2
	.loc 7 277 0
	str	s0, [x21, w1, sxtw 2]
	.loc 7 273 0
	add	w1, w2, 1
.LVL473:
	cmp	w19, w1
	ble	.L334
	.loc 7 275 0
	add	w7, w13, w1
	add	x5, x0, 4
	ldr	s1, [x20, w7, sxtw 2]
	.loc 7 276 0
	add	w7, w16, w1
	.loc 7 275 0
	ldr	s0, [x6, x5]
	.loc 7 277 0
	add	w1, w15, w1
.LVL474:
	.loc 7 275 0
	fadd	s1, s1, s0
	.loc 7 276 0
	ldr	s0, [x20, w7, sxtw 2]
	fsub	s0, s1, s0
	.loc 7 277 0
	str	s0, [x21, w1, sxtw 2]
	.loc 7 273 0
	add	w1, w2, 2
.LVL475:
	.loc 7 276 0
	str	s0, [x6, x5]
	.loc 7 273 0
	cmp	w19, w1
	ble	.L334
	.loc 7 275 0
	add	w7, w13, w1
	add	x5, x0, 8
	ldr	s1, [x20, w7, sxtw 2]
	.loc 7 276 0
	add	w7, w16, w1
	.loc 7 275 0
	ldr	s0, [x6, x5]
	.loc 7 277 0
	add	w1, w15, w1
.LVL476:
	.loc 7 275 0
	fadd	s1, s1, s0
	.loc 7 276 0
	ldr	s0, [x20, w7, sxtw 2]
	fsub	s0, s1, s0
	.loc 7 277 0
	str	s0, [x21, w1, sxtw 2]
	.loc 7 273 0
	add	w1, w2, 3
.LVL477:
	.loc 7 276 0
	str	s0, [x6, x5]
	.loc 7 273 0
	cmp	w19, w1
	ble	.L334
	.loc 7 275 0
	add	w7, w13, w1
	add	x5, x0, 12
	ldr	s1, [x20, w7, sxtw 2]
	.loc 7 276 0
	add	w7, w16, w1
	.loc 7 275 0
	ldr	s0, [x6, x5]
	.loc 7 277 0
	add	w1, w15, w1
.LVL478:
	.loc 7 275 0
	fadd	s1, s1, s0
	.loc 7 276 0
	ldr	s0, [x20, w7, sxtw 2]
	fsub	s0, s1, s0
	.loc 7 277 0
	str	s0, [x21, w1, sxtw 2]
	.loc 7 273 0
	add	w1, w2, 4
.LVL479:
	.loc 7 276 0
	str	s0, [x6, x5]
	.loc 7 273 0
	cmp	w19, w1
	ble	.L334
	.loc 7 275 0
	add	w7, w13, w1
	add	x5, x0, 16
	.loc 7 273 0
	add	w2, w2, 5
	cmp	w19, w2
	.loc 7 275 0
	ldr	s0, [x6, x5]
	ldr	s1, [x20, w7, sxtw 2]
	.loc 7 276 0
	add	w7, w16, w1
	.loc 7 277 0
	add	w1, w15, w1
.LVL480:
	.loc 7 275 0
	fadd	s1, s1, s0
	.loc 7 276 0
	ldr	s0, [x20, w7, sxtw 2]
	fsub	s0, s1, s0
	str	s0, [x6, x5]
	.loc 7 277 0
	str	s0, [x21, w1, sxtw 2]
.LVL481:
	.loc 7 273 0
	ble	.L334
	.loc 7 275 0
	add	w1, w13, w2
	add	x0, x0, 20
	ldr	s1, [x20, w1, sxtw 2]
	.loc 7 276 0
	add	w1, w16, w2
	.loc 7 275 0
	ldr	s0, [x6, x0]
	.loc 7 277 0
	add	w2, w15, w2
.LVL482:
	.loc 7 275 0
	fadd	s1, s1, s0
	.loc 7 276 0
	ldr	s0, [x20, w1, sxtw 2]
	fsub	s0, s1, s0
	str	s0, [x6, x0]
	.loc 7 277 0
	str	s0, [x21, w2, sxtw 2]
.L334:
.LBE1063:
.LBE1062:
	.loc 7 270 0
	add	w12, w12, 1
.LVL483:
	add	x9, x9, x30
	add	x11, x11, x30
	add	x18, x18, x30
	add	x10, x10, x30
	add	w13, w13, w19
	add	w16, w16, w19
	add	w15, w15, w19
.LVL484:
	cmp	w17, w12
	bne	.L336
	ldp	x27, x28, [x29, 80]
	.cfi_restore 28
	.cfi_restore 27
.LBE1067:
.LBB1068:
	.loc 7 282 0
	cmp	w17, w23
	ldr	w22, [x29, 100]
.LVL485:
	bge	.L325
.LVL486:
.L348:
	sub	w5, w17, w22
	ldr	x0, [x29, 104]
	sub	w5, w5, #1
	mul	w7, w17, w19
	neg	x11, x0
	lsl	x24, x24, 2
.LVL487:
	and	w11, w11, 3
	mov	w9, w7
	mul	w5, w5, w19
	sub	w15, w19, w11
	ubfiz	x12, x11, 2, 2
	add	x7, x21, x7, sxtw 2
	mov	w8, w5
	add	w16, w11, 3
	add	x5, x20, x5, sxtw 2
	lsr	w10, w15, 2
	add	x4, x6, x12
	and	w13, w15, -4
	.p2align 3
.L344:
.LVL488:
	add	x1, x5, 16
	add	x0, x7, 16
	cmp	x7, x1
	sub	x2, x7, x21
	ccmp	x5, x0, 2, cc
	sub	x3, x5, x20
	ccmp	w19, 5, 0, cs
	bls	.L365
	cmp	w16, w14
	bhi	.L366
.LBB1069:
.LBB1070:
	.loc 7 285 0
	mov	w18, 0
	cbz	w11, .L339
	.loc 7 287 0
	ldr	s0, [x5]
	.loc 7 285 0
	mov	w18, 1
	.loc 7 287 0
	ldr	s1, [x6]
	cmp	w11, w18
	fsub	s0, s1, s0
	str	s0, [x6]
	.loc 7 288 0
	str	s0, [x7]
.LVL489:
	beq	.L339
	.loc 7 287 0
	add	w0, w8, w18
	ldr	s1, [x6, 4]
	.loc 7 288 0
	add	w1, w9, w18
	.loc 7 285 0
	mov	w18, 2
	cmp	w11, w18
	.loc 7 287 0
	ldr	s0, [x20, w0, sxtw 2]
	fsub	s0, s1, s0
	.loc 7 288 0
	str	s0, [x21, w1, sxtw 2]
.LVL490:
	.loc 7 287 0
	str	s0, [x6, 4]
	beq	.L339
	add	w0, w8, w18
	ldr	s1, [x6, 8]
	ldr	s0, [x20, w0, sxtw 2]
	.loc 7 288 0
	add	w0, w9, w18
	.loc 7 285 0
	mov	w18, 3
	.loc 7 287 0
	fsub	s0, s1, s0
	.loc 7 288 0
	str	s0, [x21, w0, sxtw 2]
.LVL491:
	.loc 7 287 0
	str	s0, [x6, 8]
.LVL492:
.L339:
	add	x3, x12, x3
	add	x2, x12, x2
	add	x3, x20, x3
	add	x2, x21, x2
	.loc 7 285 0
	mov	x0, 0
	mov	w1, 0
	.p2align 3
.L341:
	.loc 7 287 0 discriminator 2
	ldr	q0, [x3, x0]
	add	w1, w1, 1
	ldr	q1, [x4, x0]
	cmp	w10, w1
	fsub	v0.4s, v1.4s, v0.4s
	str	q0, [x4, x0]
	.loc 7 288 0 discriminator 2
	str	q0, [x2, x0]
	add	x0, x0, 16
	bhi	.L341
	add	w0, w13, w18
	cmp	w13, w15
	beq	.L343
.L338:
.LVL493:
	.loc 7 287 0
	sxtw	x3, w0
	add	w18, w8, w0
	.loc 7 288 0
	add	w22, w9, w0
	.loc 7 285 0
	add	w2, w0, 1
.LVL494:
	.loc 7 287 0
	lsl	x1, x3, 2
	.loc 7 285 0
	cmp	w2, w19
	.loc 7 287 0
	ldr	s1, [x6, x3, lsl 2]
	ldr	s0, [x20, w18, sxtw 2]
	fsub	s0, s1, s0
	str	s0, [x6, x3, lsl 2]
	.loc 7 288 0
	str	s0, [x21, w22, sxtw 2]
	.loc 7 285 0
	bge	.L343
	.loc 7 287 0
	add	x18, x1, 4
	add	w22, w2, w8
	.loc 7 288 0
	add	w2, w2, w9
.LVL495:
	.loc 7 285 0
	add	w3, w0, 2
.LVL496:
	cmp	w19, w3
	.loc 7 287 0
	ldr	s1, [x6, x18]
	ldr	s0, [x20, w22, sxtw 2]
	fsub	s0, s1, s0
	str	s0, [x6, x18]
	.loc 7 288 0
	str	s0, [x21, w2, sxtw 2]
	.loc 7 285 0
	ble	.L343
	.loc 7 287 0
	add	x18, x1, 8
	add	w22, w8, w3
	.loc 7 288 0
	add	w3, w3, w9
.LVL497:
	.loc 7 285 0
	add	w2, w0, 3
.LVL498:
	cmp	w2, w19
	.loc 7 287 0
	ldr	s1, [x6, x18]
	ldr	s0, [x20, w22, sxtw 2]
	fsub	s0, s1, s0
	str	s0, [x6, x18]
	.loc 7 288 0
	str	s0, [x21, w3, sxtw 2]
	.loc 7 285 0
	bge	.L343
	.loc 7 287 0
	add	x18, x1, 12
	add	w22, w2, w8
	.loc 7 288 0
	add	w2, w2, w9
.LVL499:
	.loc 7 285 0
	add	w3, w0, 4
.LVL500:
	cmp	w19, w3
	.loc 7 287 0
	ldr	s1, [x6, x18]
	ldr	s0, [x20, w22, sxtw 2]
	fsub	s0, s1, s0
	str	s0, [x6, x18]
	.loc 7 288 0
	str	s0, [x21, w2, sxtw 2]
	.loc 7 285 0
	ble	.L343
	.loc 7 287 0
	add	x2, x1, 16
	add	w18, w8, w3
	.loc 7 288 0
	add	w3, w9, w3
.LVL501:
	.loc 7 285 0
	add	w0, w0, 5
.LVL502:
	cmp	w19, w0
	.loc 7 287 0
	ldr	s1, [x6, x2]
	ldr	s0, [x20, w18, sxtw 2]
	fsub	s0, s1, s0
	str	s0, [x6, x2]
	.loc 7 288 0
	str	s0, [x21, w3, sxtw 2]
.LVL503:
	.loc 7 285 0
	ble	.L343
	.loc 7 287 0
	add	x1, x1, 20
	add	w2, w8, w0
	.loc 7 288 0
	add	w0, w9, w0
.LVL504:
	.loc 7 287 0
	ldr	s1, [x6, x1]
	ldr	s0, [x20, w2, sxtw 2]
	fsub	s0, s1, s0
	str	s0, [x6, x1]
	.loc 7 288 0
	str	s0, [x21, w0, sxtw 2]
.L343:
.LBE1070:
.LBE1069:
	.loc 7 282 0
	add	w17, w17, 1
	add	x5, x5, x24
	add	x7, x7, x24
	add	w8, w8, w19
	add	w9, w9, w19
.LVL505:
	cmp	w23, w17
	bne	.L344
.LVL506:
.L325:
.LBE1068:
.LBB1075:
.LBB1076:
.LBB1077:
.LBB1078:
	.loc 9 179 0
	cbz	x6, .L290
.LVL507:
.LBE1078:
.LBE1077:
.LBE1076:
.LBE1075:
	.loc 7 292 0
	ldp	x19, x20, [sp, 16]
.LVL508:
.LBB1091:
.LBB1089:
.LBB1087:
.LBB1085:
.LBB1079:
.LBB1080:
.LBB1081:
	.loc 10 125 0
	mov	x0, x6
.LBE1081:
.LBE1080:
.LBE1079:
.LBE1085:
.LBE1087:
.LBE1089:
.LBE1091:
	.loc 7 292 0
	ldp	x21, x22, [sp, 32]
.LVL509:
	ldp	x23, x24, [sp, 48]
.LVL510:
	ldp	x25, x26, [sp, 64]
	ldp	x29, x30, [sp], 112
	.cfi_remember_state
	.cfi_restore 30
	.cfi_restore 29
	.cfi_restore 25
	.cfi_restore 26
	.cfi_restore 23
	.cfi_restore 24
	.cfi_restore 21
	.cfi_restore 22
	.cfi_restore 19
	.cfi_restore 20
	.cfi_def_cfa 31, 0
.LBB1092:
.LBB1090:
.LBB1088:
.LBB1086:
.LBB1084:
.LBB1083:
.LBB1082:
	.loc 10 125 0
	b	_ZdlPv
.LVL511:
	.p2align 2
.L365:
	.cfi_restore_state
.LBE1082:
.LBE1083:
.LBE1084:
.LBE1086:
.LBE1088:
.LBE1090:
.LBE1092:
.LBB1093:
.LBB1073:
.LBB1071:
	.loc 7 287 0
	mov	x0, 0
.LVL512:
	.p2align 3
.L337:
	ldr	s1, [x6, x0, lsl 2]
	ldr	s0, [x5, x0, lsl 2]
	fsub	s0, s1, s0
	str	s0, [x6, x0, lsl 2]
	.loc 7 288 0
	str	s0, [x7, x0, lsl 2]
.LVL513:
	add	x0, x0, 1
.LVL514:
	.loc 7 285 0
	cmp	w19, w0
	bgt	.L337
	b	.L343
.LVL515:
	.p2align 2
.L360:
	.cfi_offset 27, -32
	.cfi_offset 28, -24
.LBE1071:
.LBE1073:
.LBE1093:
.LBB1094:
.LBB1065:
.LBB1064:
	.loc 7 276 0
	mov	x0, 0
.LVL516:
	.p2align 3
.L328:
	.loc 7 275 0
	ldr	s2, [x11, x0, lsl 2]
	ldr	s0, [x6, x0, lsl 2]
	.loc 7 276 0
	ldr	s1, [x10, x0, lsl 2]
	.loc 7 275 0
	fadd	s0, s2, s0
	.loc 7 276 0
	fsub	s0, s0, s1
	str	s0, [x6, x0, lsl 2]
	.loc 7 277 0
	str	s0, [x9, x0, lsl 2]
.LVL517:
	add	x0, x0, 1
.LVL518:
	.loc 7 273 0
	cmp	w19, w0
	bgt	.L328
	b	.L334
.LVL519:
	.p2align 2
.L355:
	.cfi_restore 27
	.cfi_restore 28
.LBE1064:
.LBE1065:
.LBE1094:
.LBB1095:
.LBB1060:
	.loc 7 262 0
	mov	x0, 0
.LVL520:
	.p2align 3
.L315:
	.loc 7 261 0
	ldr	s1, [x6, x0, lsl 2]
	ldr	s0, [x5, x0, lsl 2]
	fadd	s0, s1, s0
	str	s0, [x6, x0, lsl 2]
	.loc 7 262 0
	str	s0, [x7, x0, lsl 2]
.LVL521:
	add	x0, x0, 1
.LVL522:
	.loc 7 259 0
	cmp	w19, w0
	bgt	.L315
	b	.L321
.LVL523:
	.p2align 2
.L400:
.LBE1060:
.LBE1095:
.LBB1096:
.LBB1029:
.LBB1027:
	.loc 7 214 0
	blt	.L293
	b	.L294
.LVL524:
	.p2align 2
.L351:
.LBE1027:
.LBE1029:
.LBE1096:
.LBB1097:
.LBB1056:
.LBB1054:
	.loc 7 246 0
	mov	w0, 0
	b	.L307
.LVL525:
	.p2align 2
.L290:
.LBE1054:
.LBE1056:
.LBE1097:
	.loc 7 292 0
	ldp	x19, x20, [sp, 16]
.LVL526:
	ldp	x21, x22, [sp, 32]
.LVL527:
	ldp	x23, x24, [sp, 48]
.LVL528:
	ldp	x25, x26, [sp, 64]
	ldp	x29, x30, [sp], 112
	.cfi_remember_state
	.cfi_restore 30
	.cfi_restore 29
	.cfi_restore 25
	.cfi_restore 26
	.cfi_restore 23
	.cfi_restore 24
	.cfi_restore 21
	.cfi_restore 22
	.cfi_restore 19
	.cfi_restore 20
	.cfi_def_cfa 31, 0
	ret
.LVL529:
	.p2align 2
.L366:
	.cfi_restore_state
.LBB1098:
.LBB1074:
.LBB1072:
	.loc 7 285 0
	mov	w0, 0
	b	.L338
.LVL530:
.L350:
.LBE1072:
.LBE1074:
.LBE1098:
.LBB1099:
.LBB1048:
.LBB1046:
.LBB1044:
.LBB1042:
	.loc 9 172 0
	mov	x6, 0
.LVL531:
.L302:
.LBE1042:
.LBE1044:
.LBE1046:
.LBE1048:
.LBE1099:
.LBB1100:
	.loc 7 257 0
	tbnz	w22, #31, .L402
	cmp	w19, 0
	ble	.L314
	lsr	x0, x6, 2
	sub	w14, w19, #1
	str	x0, [x29, 104]
	b	.L312
.L402:
.LBE1100:
	.loc 7 268 0
	add	w12, w22, 1
.LVL532:
	.loc 7 269 0
	sub	w17, w23, w22
.LVL533:
.LBB1101:
	.loc 7 270 0
	cmp	w17, w12
	ble	.L346
	cmp	w19, 0
	ble	.L325
	lsr	x0, x6, 2
	stp	x27, x28, [x29, 80]
	.cfi_remember_state
	.cfi_offset 28, -24
	.cfi_offset 27, -32
	sub	w14, w19, #1
	str	x0, [x29, 104]
	b	.L347
.LVL534:
.L314:
	.cfi_restore_state
.LBE1101:
	.loc 7 269 0
	sub	w17, w23, w22
.LVL535:
	.loc 7 268 0
	add	w0, w22, 1
.LVL536:
.LBB1102:
	.loc 7 270 0
	cmp	w17, w0
	bgt	.L325
.LVL537:
.L346:
.LBE1102:
.LBB1103:
	.loc 7 282 0
	cmp	w17, w23
	bge	.L325
	cmp	w19, 0
	ble	.L325
	lsr	x0, x6, 2
	sub	w14, w19, #1
	str	x0, [x29, 104]
	b	.L348
.LVL538:
.L401:
	stp	x27, x28, [x29, 80]
	.cfi_offset 28, -24
	.cfi_offset 27, -32
.LBE1103:
.LBB1104:
.LBB1049:
.LBB1047:
.LBB1045:
.LBB1043:
.LBB1041:
.LBB1040:
.LBB1039:
	.loc 10 102 0
	bl	_ZSt17__throw_bad_allocv
.LVL539:
.LBE1039:
.LBE1040:
.LBE1041:
.LBE1043:
.LBE1045:
.LBE1047:
.LBE1049:
.LBE1104:
	.cfi_endproc
.LFE11836:
	.size	_Z21boxFilterOpenCVTrick3PfS_iiiS_, .-_Z21boxFilterOpenCVTrick3PfS_iiiS_
	.align	2
	.p2align 3,,7
	.global	_Z16boxFilterArmNeonPfS_iiiS_
	.type	_Z16boxFilterArmNeonPfS_iiiS_, %function
_Z16boxFilterArmNeonPfS_iiiS_:
.LFB11837:
	.loc 7 295 0
	.cfi_startproc
	.cfi_personality 0x9b,DW.ref.__gxx_personality_v0
.LVL540:
	stp	x29, x30, [sp, -80]!
	.cfi_def_cfa_offset 80
	.cfi_offset 29, -80
	.cfi_offset 30, -72
.LBB1230:
	.loc 7 297 0
	cmp	w3, 0
.LBE1230:
	.loc 7 295 0
	add	x29, sp, 0
	.cfi_def_cfa_register 29
	stp	x19, x20, [sp, 16]
	.cfi_offset 19, -64
	.cfi_offset 20, -56
	mov	w20, w3
	stp	x21, x22, [sp, 32]
	mov	w19, w4
	stp	x23, x24, [sp, 48]
	.cfi_offset 21, -48
	.cfi_offset 22, -40
	.cfi_offset 23, -32
	.cfi_offset 24, -24
	mov	x22, x1
	mov	w21, w2
	mov	x23, x5
	sxtw	x24, w2
.LBB1239:
	.loc 7 297 0
	ble	.L404
	sub	w13, w2, w4
	sub	w10, w2, #1
	sxtw	x1, w4
.LVL541:
	sub	w10, w10, w13
	sxtw	x14, w13
.LBB1231:
	.loc 7 314 0
	add	w15, w4, 1
	add	x10, x10, x14
	neg	x1, x1, lsl 2
	sxtw	x24, w2
	sub	w17, w4, #1
	lsl	x14, x14, 2
	add	x16, x1, x15, sxtw 2
	mov	x2, 4
.LVL542:
	add	x1, x14, x1
	lsl	x10, x10, 2
	uxtw	x5, w4
.LVL543:
	add	x17, x2, x17, uxtw 2
	.loc 7 315 0
	sub	w3, w13, #1
.LVL544:
	lsl	x12, x24, 2
	mov	x7, x0
	mov	x2, x23
	add	x5, x5, 1
	sub	x16, x16, #4
	sub	x11, x1, #4
	add	x10, x10, 4
	sxtw	x18, w15
	mov	w8, w4
.LBE1231:
	.loc 7 297 0
	mov	w9, 0
.LVL545:
	.p2align 3
.L414:
.LBB1237:
	.loc 7 299 0
	movi	v0.2s, #0
	add	x4, x17, x7
.LBB1232:
	.loc 7 302 0
	mov	x1, x7
	cmp	w19, 0
	ble	.L504
.LVL546:
	.p2align 3
.L408:
	.loc 7 304 0 discriminator 2
	ldr	s1, [x1], 4
	fadd	s0, s0, s1
.LVL547:
	.loc 7 302 0 discriminator 2
	cmp	x1, x4
	bne	.L408
.LVL548:
.L407:
	add	x4, x0, x8, sxtw 2
.LBE1232:
	.loc 7 299 0
	mov	x1, 0
.LVL549:
	.p2align 3
.L409:
.LBB1233:
	.loc 7 309 0 discriminator 2
	ldr	s1, [x4, x1, lsl 2]
	fadd	s0, s0, s1
.LVL550:
	.loc 7 310 0 discriminator 2
	str	s0, [x2, x1, lsl 2]
.LVL551:
	add	x1, x1, 1
.LVL552:
	.loc 7 307 0 discriminator 2
	cmp	x5, x1
	bne	.L409
.LVL553:
.L406:
.LBE1233:
.LBB1234:
	.loc 7 316 0
	cmp	w15, w3
	bgt	.L410
	add	x6, x16, x7
	add	x4, x0, x8, sxtw 2
	mov	x1, x18
.LVL554:
	.p2align 3
.L411:
	.loc 7 318 0 discriminator 2
	ldr	s2, [x4, x1, lsl 2]
	.loc 7 319 0 discriminator 2
	ldr	s1, [x6], 4
	.loc 7 318 0 discriminator 2
	fadd	s0, s0, s2
.LVL555:
	.loc 7 319 0 discriminator 2
	fsub	s0, s0, s1
.LVL556:
	.loc 7 320 0 discriminator 2
	str	s0, [x2, x1, lsl 2]
.LVL557:
	add	x1, x1, 1
.LVL558:
	.loc 7 316 0 discriminator 2
	cmp	w3, w1
	bge	.L411
.L410:
.LVL559:
.LBE1234:
.LBB1235:
	.loc 7 324 0
	cmp	w21, w13
	ble	.L412
	add	x6, x11, x7
	add	x1, x14, x2
	add	x4, x10, x2
.LVL560:
	.p2align 3
.L413:
	.loc 7 326 0 discriminator 2
	ldr	s1, [x6], 4
	fsub	s0, s0, s1
.LVL561:
	.loc 7 327 0 discriminator 2
	str	s0, [x1], 4
	.loc 7 324 0 discriminator 2
	cmp	x1, x4
	bne	.L413
.L412:
.LBE1235:
.LBE1237:
	.loc 7 297 0
	add	w9, w9, 1
.LVL562:
	add	x7, x7, x12
	add	w8, w8, w21
	add	x2, x2, x12
	cmp	w20, w9
	bne	.L414
.LVL563:
.L404:
.LBE1239:
.LBB1240:
.LBB1241:
.LBB1242:
.LBB1243:
.LBB1244:
	.loc 9 172 0
	cbz	x24, .L451
.LVL564:
	str	x25, [x29, 64]
	.cfi_offset 25, -16
.LBB1245:
.LBB1246:
.LBB1247:
	.loc 10 101 0
	mov	x0, 4611686018427387903
.LVL565:
	cmp	x24, x0
	bhi	.L505
	.loc 10 111 0
	lsl	x25, x24, 2
	mov	x0, x25
	bl	_Znwm
.LVL566:
	mov	x2, x25
	mov	w1, 0
	bl	memset
.LVL567:
	ldr	x25, [x29, 64]
	.cfi_restore 25
	mov	x4, x0
.LVL568:
.L415:
.LBE1247:
.LBE1246:
.LBE1245:
.LBE1244:
.LBE1243:
.LBE1242:
.LBE1241:
.LBE1240:
	.loc 7 345 0
	asr	w8, w21, 2
.LVL569:
	and	w7, w21, 3
.LVL570:
.LBB1255:
	.loc 7 347 0
	cmp	w19, 0
	ble	.L506
	sub	w11, w8, #1
	mov	x5, x23
	mov	w3, 0
	ubfiz	x2, x11, 4, 32
	add	x2, x2, 16
	add	x2, x4, x2
.LVL571:
	.p2align 3
.L424:
.LBB1256:
	.loc 7 350 0
	mov	x1, x5
.LVL572:
.LBB1257:
	.loc 7 355 0
	mov	x0, x4
	cmp	w8, 0
	ble	.L423
.LVL573:
	.p2align 3
.L420:
.LBB1258:
.LBB1259:
.LBB1260:
	.file 11 "/usr/lib/gcc/aarch64-linux-gnu/7/include/arm_neon.h"
	.loc 11 17161 0
	ldr	q1, [x0]
.LVL574:
.LBE1260:
.LBE1259:
.LBB1261:
.LBB1262:
	ldr	q0, [x1], 16
.LVL575:
.LBE1262:
.LBE1261:
.LBB1263:
.LBB1264:
	.loc 11 753 0
	fadd	v0.4s, v0.4s, v1.4s
.LVL576:
.LBE1264:
.LBE1263:
.LBB1265:
.LBB1266:
	.loc 11 26870 0
	str	q0, [x0], 16
.LVL577:
.LBE1266:
.LBE1265:
.LBE1258:
	.loc 7 355 0
	cmp	x0, x2
	bne	.L420
	mov	x0, x2
.LVL578:
.L423:
.LBE1257:
	.loc 7 368 0
	cbz	w7, .L422
	.loc 7 370 0
	ldr	s0, [x0]
	.loc 7 368 0
	cmp	w7, 1
	.loc 7 370 0
	ldr	s1, [x1]
	fadd	s0, s0, s1
	str	s0, [x0]
.LVL579:
	.loc 7 368 0
	beq	.L422
	.loc 7 370 0
	ldr	s0, [x0, 4]
	.loc 7 368 0
	cmp	w7, 2
	.loc 7 370 0
	ldr	s1, [x1, 4]
	fadd	s0, s0, s1
	str	s0, [x0, 4]
.LVL580:
	.loc 7 368 0
	beq	.L422
	.loc 7 370 0
	ldr	s0, [x0, 8]
	ldr	s1, [x1, 8]
	fadd	s0, s0, s1
	str	s0, [x0, 8]
.LVL581:
.L422:
.LBE1256:
	.loc 7 347 0 discriminator 2
	add	w3, w3, 1
.LVL582:
	add	x5, x5, x21, sxtw 2
	cmp	w19, w3
	bne	.L424
.LVL583:
.L419:
	mul	w5, w21, w19
	mov	x0, 16
	lsl	x10, x24, 2
	mov	x9, x22
	add	x11, x0, x11, uxtw 4
.LBE1255:
.LBB1267:
	.loc 7 392 0
	mov	w6, 0
	add	x5, x23, x5, sxtw 2
.LVL584:
	.p2align 3
.L430:
.LBB1268:
	.loc 7 394 0
	mov	x1, x5
.LVL585:
	.loc 7 396 0
	mov	x2, x9
.LVL586:
	add	x3, x11, x5
.LBB1269:
	.loc 7 401 0
	mov	x0, x4
	cmp	w8, 0
	ble	.L507
.LVL587:
	.p2align 3
.L429:
.LBB1270:
.LBB1271:
.LBB1272:
	.loc 11 17161 0
	ldr	q1, [x1], 16
.LVL588:
.LBE1272:
.LBE1271:
.LBB1273:
.LBB1274:
	ldr	q0, [x0]
.LVL589:
.LBE1274:
.LBE1273:
.LBE1270:
	.loc 7 401 0
	cmp	x1, x3
.LBB1281:
.LBB1275:
.LBB1276:
	.loc 11 753 0
	fadd	v0.4s, v0.4s, v1.4s
.LVL590:
.LBE1276:
.LBE1275:
.LBB1277:
.LBB1278:
	.loc 11 26870 0
	str	q0, [x0], 16
.LVL591:
.LBE1278:
.LBE1277:
.LBB1279:
.LBB1280:
	str	q0, [x2], 16
.LVL592:
.LBE1280:
.LBE1279:
.LBE1281:
	.loc 7 401 0
	bne	.L429
.LVL593:
.L428:
.LBE1269:
	.loc 7 415 0
	cbz	w7, .L427
	.loc 7 417 0
	ldr	s0, [x0]
	.loc 7 415 0
	cmp	w7, 1
	.loc 7 417 0
	ldr	s2, [x3]
	.loc 7 418 0
	ldr	s1, [x2]
	.loc 7 417 0
	fadd	s0, s0, s2
	.loc 7 418 0
	fadd	s1, s1, s0
	.loc 7 417 0
	str	s0, [x0]
	.loc 7 418 0
	str	s1, [x2]
.LVL594:
	.loc 7 415 0
	beq	.L427
	.loc 7 417 0
	ldr	s0, [x0, 4]
	.loc 7 415 0
	cmp	w7, 2
	.loc 7 417 0
	ldr	s2, [x3, 4]
	.loc 7 418 0
	ldr	s1, [x2, 4]
	.loc 7 417 0
	fadd	s0, s0, s2
	.loc 7 418 0
	fadd	s1, s1, s0
	.loc 7 417 0
	str	s0, [x0, 4]
	.loc 7 418 0
	str	s1, [x2, 4]
.LVL595:
	.loc 7 415 0
	beq	.L427
	.loc 7 417 0
	ldr	s0, [x0, 8]
	ldr	s2, [x3, 8]
	.loc 7 418 0
	ldr	s1, [x2, 8]
	.loc 7 417 0
	fadd	s0, s0, s2
	.loc 7 418 0
	fadd	s1, s1, s0
	.loc 7 417 0
	str	s0, [x0, 8]
	.loc 7 418 0
	str	s1, [x2, 8]
.LVL596:
.L427:
.LBE1268:
	.loc 7 392 0 discriminator 2
	add	w6, w6, 1
.LVL597:
	add	x5, x5, x10
	add	x9, x9, x10
	cmp	w19, w6
	bge	.L430
.LVL598:
.L418:
.LBE1267:
	.loc 7 441 0
	add	w11, w19, 1
.LVL599:
	.loc 7 442 0
	sub	w9, w20, w19
.LVL600:
.LBB1283:
	.loc 7 444 0
	cmp	w9, w11
	ble	.L439
	add	w13, w19, w11
	mul	w10, w21, w11
	sub	w14, w8, #1
	mov	x0, 16
	lsl	x12, x24, 2
	mov	x5, x23
	mul	w13, w13, w21
	add	x10, x22, x10, sxtw 2
	add	x14, x0, x14, uxtw 4
.LVL601:
	.p2align 3
.L440:
	add	x2, x5, x13, sxtw 2
.LVL602:
.LBB1284:
	.loc 7 450 0
	mov	x1, x5
.LVL603:
	.loc 7 452 0
	mov	x6, x10
.LVL604:
	add	x3, x14, x5
.LBB1285:
	.loc 7 454 0
	mov	x0, x4
	cmp	w8, 0
	ble	.L508
.LVL605:
	.p2align 3
.L438:
.LBB1286:
.LBB1287:
.LBB1288:
	.loc 11 17161 0
	ldr	q2, [x2], 16
.LVL606:
.LBE1288:
.LBE1287:
.LBB1289:
.LBB1290:
	ldr	q0, [x0]
.LBE1290:
.LBE1289:
.LBB1291:
.LBB1292:
	ldr	q1, [x1], 16
.LVL607:
.LBE1292:
.LBE1291:
.LBB1293:
.LBB1294:
	.loc 11 753 0
	fadd	v0.4s, v0.4s, v2.4s
.LVL608:
.LBE1294:
.LBE1293:
.LBE1286:
	.loc 7 454 0
	cmp	x1, x3
.LBB1301:
.LBB1295:
.LBB1296:
	.loc 11 2155 0
	fsub	v0.4s, v0.4s, v1.4s
.LVL609:
.LBE1296:
.LBE1295:
.LBB1297:
.LBB1298:
	.loc 11 26870 0
	str	q0, [x0], 16
.LVL610:
.LBE1298:
.LBE1297:
.LBB1299:
.LBB1300:
	str	q0, [x6], 16
.LVL611:
.LBE1300:
.LBE1299:
.LBE1301:
	.loc 7 454 0
	bne	.L438
.LVL612:
.L437:
.LBE1285:
	.loc 7 472 0
	cbz	w7, .L436
	.loc 7 474 0
	ldr	s0, [x0]
	.loc 7 472 0
	cmp	w7, 1
	.loc 7 474 0
	ldr	s2, [x2]
	.loc 7 475 0
	ldr	s1, [x3]
	.loc 7 474 0
	fadd	s0, s0, s2
	.loc 7 475 0
	fsub	s0, s0, s1
	str	s0, [x0]
	.loc 7 476 0
	str	s0, [x6]
.LVL613:
	.loc 7 472 0
	beq	.L436
	.loc 7 474 0
	ldr	s0, [x0, 4]
	.loc 7 472 0
	cmp	w7, 2
	.loc 7 474 0
	ldr	s2, [x2, 4]
	.loc 7 475 0
	ldr	s1, [x3, 4]
	.loc 7 474 0
	fadd	s0, s0, s2
	.loc 7 475 0
	fsub	s0, s0, s1
	str	s0, [x0, 4]
	.loc 7 476 0
	str	s0, [x6, 4]
.LVL614:
	.loc 7 472 0
	beq	.L436
	.loc 7 474 0
	ldr	s0, [x0, 8]
	ldr	s2, [x2, 8]
	.loc 7 475 0
	ldr	s1, [x3, 8]
	.loc 7 474 0
	fadd	s0, s0, s2
	.loc 7 475 0
	fsub	s0, s0, s1
	str	s0, [x0, 8]
	.loc 7 476 0
	str	s0, [x6, 8]
.LVL615:
.L436:
.LBE1284:
	.loc 7 444 0 discriminator 2
	add	w11, w11, 1
.LVL616:
	add	x5, x5, x12
	add	x10, x10, x12
	cmp	w9, w11
	bne	.L440
.L439:
.LVL617:
.LBE1283:
.LBB1303:
	.loc 7 505 0
	cmp	w9, w20
	bge	.L432
	sub	w3, w9, w19
	mul	w0, w9, w21
	sub	w3, w3, #1
	sub	w6, w8, #1
	mov	x1, 16
	lsl	x24, x24, 2
	add	x22, x22, x0, sxtw 2
.LVL618:
	add	x6, x1, x6, uxtw 4
	mul	w3, w3, w21
	add	x3, x23, x3, sxtw 2
.LVL619:
	.p2align 3
.L446:
.LBB1304:
	.loc 7 510 0
	mov	x1, x22
.LVL620:
	.loc 7 511 0
	mov	x2, x3
.LVL621:
	add	x5, x6, x22
.LBB1305:
	.loc 7 514 0
	mov	x0, x4
	cmp	w8, 0
	ble	.L509
.LVL622:
	.p2align 3
.L445:
.LBB1306:
.LBB1307:
.LBB1308:
	.loc 11 17161 0
	ldr	q0, [x0]
.LVL623:
.LBE1308:
.LBE1307:
.LBB1309:
.LBB1310:
	ldr	q1, [x2], 16
.LVL624:
.LBE1310:
.LBE1309:
.LBB1311:
.LBB1312:
	.loc 11 2155 0
	fsub	v0.4s, v0.4s, v1.4s
.LVL625:
.LBE1312:
.LBE1311:
.LBB1313:
.LBB1314:
	.loc 11 26870 0
	str	q0, [x0], 16
.LVL626:
.LBE1314:
.LBE1313:
.LBB1315:
.LBB1316:
	str	q0, [x1], 16
.LVL627:
.LBE1316:
.LBE1315:
.LBE1306:
	.loc 7 514 0
	cmp	x1, x5
	bne	.L445
.LVL628:
.L444:
.LBE1305:
	.loc 7 528 0
	cbz	w7, .L443
	.loc 7 530 0
	ldr	s0, [x0]
	.loc 7 528 0
	cmp	w7, 1
	.loc 7 530 0
	ldr	s1, [x2]
	fsub	s0, s0, s1
	str	s0, [x0]
	.loc 7 531 0
	str	s0, [x5]
.LVL629:
	.loc 7 528 0
	beq	.L443
	.loc 7 530 0
	ldr	s0, [x0, 4]
	.loc 7 528 0
	cmp	w7, 2
	.loc 7 530 0
	ldr	s1, [x2, 4]
	fsub	s0, s0, s1
	str	s0, [x0, 4]
	.loc 7 531 0
	str	s0, [x5, 4]
.LVL630:
	.loc 7 528 0
	beq	.L443
	.loc 7 530 0
	ldr	s0, [x0, 8]
	ldr	s1, [x2, 8]
	fsub	s0, s0, s1
	str	s0, [x0, 8]
	.loc 7 531 0
	str	s0, [x5, 8]
.LVL631:
.L443:
.LBE1304:
	.loc 7 505 0 discriminator 2
	add	w9, w9, 1
.LVL632:
	add	x22, x22, x24
	add	x3, x3, x24
	cmp	w20, w9
	bne	.L446
.L432:
.LVL633:
.LBE1303:
.LBB1318:
.LBB1319:
.LBB1320:
.LBB1321:
	.loc 9 179 0
	cbz	x4, .L403
.LVL634:
.LBE1321:
.LBE1320:
.LBE1319:
.LBE1318:
	.loc 7 549 0
	ldp	x19, x20, [sp, 16]
.LVL635:
.LBB1334:
.LBB1332:
.LBB1330:
.LBB1328:
.LBB1322:
.LBB1323:
.LBB1324:
	.loc 10 125 0
	mov	x0, x4
.LBE1324:
.LBE1323:
.LBE1322:
.LBE1328:
.LBE1330:
.LBE1332:
.LBE1334:
	.loc 7 549 0
	ldp	x21, x22, [sp, 32]
.LVL636:
	ldp	x23, x24, [sp, 48]
.LVL637:
	ldp	x29, x30, [sp], 80
	.cfi_remember_state
	.cfi_restore 30
	.cfi_restore 29
	.cfi_restore 23
	.cfi_restore 24
	.cfi_restore 21
	.cfi_restore 22
	.cfi_restore 19
	.cfi_restore 20
	.cfi_def_cfa 31, 0
.LBB1335:
.LBB1333:
.LBB1331:
.LBB1329:
.LBB1327:
.LBB1326:
.LBB1325:
	.loc 10 125 0
	b	_ZdlPv
.LVL638:
	.p2align 2
.L509:
	.cfi_restore_state
.LBE1325:
.LBE1326:
.LBE1327:
.LBE1329:
.LBE1331:
.LBE1333:
.LBE1335:
.LBB1336:
.LBB1317:
	.loc 7 510 0
	mov	x5, x22
	b	.L444
.LVL639:
	.p2align 2
.L508:
.LBE1317:
.LBE1336:
.LBB1337:
.LBB1302:
	.loc 7 450 0
	mov	x3, x5
	b	.L437
.LVL640:
	.p2align 2
.L507:
.LBE1302:
.LBE1337:
.LBB1338:
.LBB1282:
	.loc 7 394 0
	mov	x3, x5
	b	.L428
.LVL641:
	.p2align 2
.L504:
.LBE1282:
.LBE1338:
.LBB1339:
.LBB1238:
.LBB1236:
	.loc 7 307 0
	blt	.L406
	b	.L407
.L454:
.LVL642:
	.p2align 2
.L403:
.LBE1236:
.LBE1238:
.LBE1339:
	.loc 7 549 0
	ldp	x19, x20, [sp, 16]
.LVL643:
	ldp	x21, x22, [sp, 32]
.LVL644:
	ldp	x23, x24, [sp, 48]
.LVL645:
	ldp	x29, x30, [sp], 80
	.cfi_remember_state
	.cfi_restore 30
	.cfi_restore 29
	.cfi_restore 23
	.cfi_restore 24
	.cfi_restore 21
	.cfi_restore 22
	.cfi_restore 19
	.cfi_restore 20
	.cfi_def_cfa 31, 0
	ret
.LVL646:
.L506:
	.cfi_restore_state
.LBB1340:
	.loc 7 392 0
	blt	.L418
	sub	w11, w8, #1
	b	.L419
.LVL647:
	.p2align 2
.L451:
.LBE1340:
.LBB1341:
.LBB1254:
.LBB1253:
.LBB1252:
.LBB1251:
	.loc 9 172 0
	mov	x4, 0
	b	.L415
.LVL648:
.L505:
	.cfi_offset 25, -16
.LBB1250:
.LBB1249:
.LBB1248:
	.loc 10 102 0
	bl	_ZSt17__throw_bad_allocv
.LVL649:
.LBE1248:
.LBE1249:
.LBE1250:
.LBE1251:
.LBE1252:
.LBE1253:
.LBE1254:
.LBE1341:
	.cfi_endproc
.LFE11837:
	.size	_Z16boxFilterArmNeonPfS_iiiS_, .-_Z16boxFilterArmNeonPfS_iiiS_
	.align	2
	.p2align 3,,7
	.global	_Z22boxFilterArmNeon_assemPfS_iiiS_
	.type	_Z22boxFilterArmNeon_assemPfS_iiiS_, %function
_Z22boxFilterArmNeon_assemPfS_iiiS_:
.LFB11838:
	.loc 7 552 0
	.cfi_startproc
	.cfi_personality 0x9b,DW.ref.__gxx_personality_v0
.LVL650:
	stp	x29, x30, [sp, -144]!
	.cfi_def_cfa_offset 144
	.cfi_offset 29, -144
	.cfi_offset 30, -136
.LBB1451:
	.loc 7 554 0
	cmp	w3, 0
.LBE1451:
	.loc 7 552 0
	add	x29, sp, 0
	.cfi_def_cfa_register 29
	stp	x19, x20, [sp, 16]
	.cfi_offset 19, -128
	.cfi_offset 20, -120
	mov	w19, w3
	stp	x21, x22, [sp, 32]
	mov	w20, w4
	stp	x23, x24, [sp, 48]
	.cfi_offset 21, -112
	.cfi_offset 22, -104
	.cfi_offset 23, -96
	.cfi_offset 24, -88
	mov	x22, x1
	mov	w21, w2
	mov	x24, x5
	sxtw	x23, w2
.LBB1460:
	.loc 7 554 0
	ble	.L511
	sub	w13, w2, w4
	sub	w10, w2, #1
	sxtw	x1, w4
.LVL651:
	sub	w10, w10, w13
	sxtw	x14, w13
.LBB1452:
	.loc 7 571 0
	add	w15, w4, 1
	add	x10, x10, x14
	neg	x1, x1, lsl 2
	sxtw	x23, w2
	sub	w17, w4, #1
	lsl	x14, x14, 2
	add	x16, x1, x15, sxtw 2
	mov	x2, 4
.LVL652:
	add	x1, x1, x14
	lsl	x10, x10, 2
	uxtw	x5, w4
.LVL653:
	add	x17, x2, x17, uxtw 2
	.loc 7 572 0
	sub	w3, w13, #1
.LVL654:
	lsl	x12, x23, 2
	mov	x7, x0
	mov	x2, x24
	add	x5, x5, 1
	sub	x16, x16, #4
	sub	x11, x1, #4
	add	x10, x10, 4
	sxtw	x18, w15
	mov	w8, w4
.LBE1452:
	.loc 7 554 0
	mov	w9, 0
.LVL655:
	.p2align 3
.L521:
.LBB1458:
	.loc 7 556 0
	movi	v0.2s, #0
	add	x4, x17, x7
.LBB1453:
	.loc 7 559 0
	mov	x1, x7
	cmp	w20, 0
	ble	.L680
.LVL656:
	.p2align 3
.L515:
	.loc 7 561 0 discriminator 2
	ldr	s1, [x1], 4
	fadd	s0, s0, s1
.LVL657:
	.loc 7 559 0 discriminator 2
	cmp	x4, x1
	bne	.L515
.LVL658:
.L514:
	add	x4, x0, x8, sxtw 2
.LBE1453:
	.loc 7 556 0
	mov	x1, 0
.LVL659:
	.p2align 3
.L516:
.LBB1454:
	.loc 7 566 0 discriminator 2
	ldr	s1, [x4, x1, lsl 2]
	fadd	s0, s0, s1
.LVL660:
	.loc 7 567 0 discriminator 2
	str	s0, [x2, x1, lsl 2]
.LVL661:
	add	x1, x1, 1
.LVL662:
	.loc 7 564 0 discriminator 2
	cmp	x5, x1
	bne	.L516
.LVL663:
.L513:
.LBE1454:
.LBB1455:
	.loc 7 573 0
	cmp	w15, w3
	bgt	.L517
	add	x6, x16, x7
	add	x4, x0, x8, sxtw 2
	mov	x1, x18
.LVL664:
	.p2align 3
.L518:
	.loc 7 575 0 discriminator 2
	ldr	s2, [x4, x1, lsl 2]
	.loc 7 576 0 discriminator 2
	ldr	s1, [x6], 4
	.loc 7 575 0 discriminator 2
	fadd	s0, s0, s2
.LVL665:
	.loc 7 576 0 discriminator 2
	fsub	s0, s0, s1
.LVL666:
	.loc 7 577 0 discriminator 2
	str	s0, [x2, x1, lsl 2]
.LVL667:
	add	x1, x1, 1
.LVL668:
	.loc 7 573 0 discriminator 2
	cmp	w3, w1
	bge	.L518
.L517:
.LVL669:
.LBE1455:
.LBB1456:
	.loc 7 581 0
	cmp	w21, w13
	ble	.L519
	add	x6, x11, x7
	add	x1, x14, x2
	add	x4, x10, x2
.LVL670:
	.p2align 3
.L520:
	.loc 7 583 0 discriminator 2
	ldr	s1, [x6], 4
	fsub	s0, s0, s1
.LVL671:
	.loc 7 584 0 discriminator 2
	str	s0, [x1], 4
	.loc 7 581 0 discriminator 2
	cmp	x4, x1
	bne	.L520
.L519:
.LBE1456:
.LBE1458:
	.loc 7 554 0
	add	w9, w9, 1
.LVL672:
	add	x7, x7, x12
	add	w8, w8, w21
	add	x2, x2, x12
	cmp	w19, w9
	bne	.L521
.LVL673:
.L511:
.LBE1460:
.LBB1461:
.LBB1462:
.LBB1463:
.LBB1464:
.LBB1465:
	.loc 9 172 0
	cbz	x23, .L555
.LVL674:
	str	x25, [x29, 64]
	.cfi_offset 25, -80
.LBB1466:
.LBB1467:
.LBB1468:
	.loc 10 101 0
	mov	x0, 4611686018427387903
.LVL675:
	cmp	x23, x0
	bhi	.L681
	.loc 10 111 0
	lsl	x25, x23, 2
	mov	x0, x25
	bl	_Znwm
.LVL676:
	mov	x2, x25
	mov	w1, 0
	bl	memset
.LVL677:
	ldr	x25, [x29, 64]
	.cfi_restore 25
	mov	x4, x0
.LVL678:
.L522:
.LBE1468:
.LBE1467:
.LBE1466:
.LBE1465:
.LBE1464:
.LBE1463:
.LBE1462:
.LBE1461:
	.loc 7 594 0
	asr	w9, w21, 2
.LVL679:
	and	w5, w21, 3
.LVL680:
.LBB1476:
	.loc 7 596 0
	cmp	w20, 0
	ble	.L682
	sub	w2, w9, #1
	mov	x7, x24
	mov	w6, 0
	ubfiz	x3, x2, 4, 32
	add	x3, x3, 16
	add	x3, x4, x3
.LVL681:
	.p2align 3
.L531:
.LBB1477:
	.loc 7 599 0
	mov	x1, x7
.LVL682:
.LBB1478:
	.loc 7 604 0
	mov	x0, x4
	cmp	w9, 0
	ble	.L530
.LVL683:
	.p2align 3
.L527:
.LBB1479:
.LBB1480:
.LBB1481:
	.loc 11 17161 0
	ldr	q1, [x0]
.LVL684:
.LBE1481:
.LBE1480:
.LBB1482:
.LBB1483:
	ldr	q0, [x1], 16
.LVL685:
.LBE1483:
.LBE1482:
.LBB1484:
.LBB1485:
	.loc 11 753 0
	fadd	v0.4s, v0.4s, v1.4s
.LVL686:
.LBE1485:
.LBE1484:
.LBB1486:
.LBB1487:
	.loc 11 26870 0
	str	q0, [x0], 16
.LVL687:
.LBE1487:
.LBE1486:
.LBE1479:
	.loc 7 604 0
	cmp	x0, x3
	bne	.L527
	mov	x0, x3
.LVL688:
.L530:
.LBE1478:
	.loc 7 617 0
	cbz	w5, .L529
	.loc 7 619 0
	ldr	s0, [x0]
	.loc 7 617 0
	cmp	w5, 1
	.loc 7 619 0
	ldr	s1, [x1]
	fadd	s0, s0, s1
	str	s0, [x0]
.LVL689:
	.loc 7 617 0
	beq	.L529
	.loc 7 619 0
	ldr	s0, [x0, 4]
	.loc 7 617 0
	cmp	w5, 2
	.loc 7 619 0
	ldr	s1, [x1, 4]
	fadd	s0, s0, s1
	str	s0, [x0, 4]
.LVL690:
	.loc 7 617 0
	beq	.L529
	.loc 7 619 0
	ldr	s0, [x0, 8]
	ldr	s1, [x1, 8]
	fadd	s0, s0, s1
	str	s0, [x0, 8]
.LVL691:
.L529:
.LBE1477:
	.loc 7 596 0 discriminator 2
	add	w6, w6, 1
.LVL692:
	add	x7, x7, x21, sxtw 2
	cmp	w20, w6
	bne	.L531
.LVL693:
.L526:
	mul	w6, w21, w20
	ubfiz	x3, x2, 4, 32
	add	x3, x3, 16
	lsl	x10, x23, 2
	mov	x8, x22
	add	x3, x4, x3
	add	x6, x24, x6, sxtw 2
.LBE1476:
.LBB1488:
	.loc 7 625 0
	mov	w7, 0
.LVL694:
	.p2align 3
.L536:
.LBB1489:
	.loc 7 627 0
	mov	x2, x6
.LVL695:
	.loc 7 629 0
	mov	x1, x8
.LVL696:
.LBB1490:
	.loc 7 634 0
	mov	x0, x4
	cmp	w9, 0
	ble	.L535
.LVL697:
	.p2align 3
.L532:
.LBB1491:
.LBB1492:
.LBB1493:
	.loc 11 17161 0
	ldr	q1, [x2], 16
.LVL698:
.LBE1493:
.LBE1492:
.LBB1494:
.LBB1495:
	ldr	q0, [x0]
.LVL699:
.LBE1495:
.LBE1494:
.LBB1496:
.LBB1497:
	.loc 11 753 0
	fadd	v0.4s, v0.4s, v1.4s
.LVL700:
.LBE1497:
.LBE1496:
.LBB1498:
.LBB1499:
	.loc 11 26870 0
	str	q0, [x0], 16
.LVL701:
.LBE1499:
.LBE1498:
.LBE1491:
	.loc 7 634 0
	cmp	x0, x3
.LBB1502:
.LBB1500:
.LBB1501:
	.loc 11 26870 0
	str	q0, [x1], 16
.LVL702:
.LBE1501:
.LBE1500:
.LBE1502:
	.loc 7 634 0
	bne	.L532
	mov	x0, x3
.LVL703:
.L535:
.LBE1490:
	.loc 7 648 0
	cbz	w5, .L534
	.loc 7 650 0
	ldr	s0, [x0]
	.loc 7 648 0
	cmp	w5, 1
	.loc 7 650 0
	ldr	s2, [x2]
	.loc 7 651 0
	ldr	s1, [x1]
	.loc 7 650 0
	fadd	s0, s0, s2
	.loc 7 651 0
	fadd	s1, s1, s0
	.loc 7 650 0
	str	s0, [x0]
	.loc 7 651 0
	str	s1, [x1]
.LVL704:
	.loc 7 648 0
	beq	.L534
	.loc 7 650 0
	ldr	s0, [x0, 4]
	.loc 7 648 0
	cmp	w5, 2
	.loc 7 650 0
	ldr	s2, [x2, 4]
	.loc 7 651 0
	ldr	s1, [x1, 4]
	.loc 7 650 0
	fadd	s0, s0, s2
	.loc 7 651 0
	fadd	s1, s1, s0
	.loc 7 650 0
	str	s0, [x0, 4]
	.loc 7 651 0
	str	s1, [x1, 4]
.LVL705:
	.loc 7 648 0
	beq	.L534
	.loc 7 650 0
	ldr	s0, [x0, 8]
	ldr	s2, [x2, 8]
	.loc 7 651 0
	ldr	s1, [x1, 8]
	.loc 7 650 0
	fadd	s0, s0, s2
	.loc 7 651 0
	fadd	s1, s1, s0
	.loc 7 650 0
	str	s0, [x0, 8]
	.loc 7 651 0
	str	s1, [x1, 8]
.LVL706:
.L534:
.LBE1489:
	.loc 7 625 0 discriminator 2
	add	w7, w7, 1
.LVL707:
	add	x6, x6, x10
	add	x8, x8, x10
	cmp	w20, w7
	bge	.L536
.LVL708:
.L525:
.LBE1488:
	.loc 7 661 0
	add	w12, w20, 1
.LVL709:
	.loc 7 662 0
	sub	w8, w19, w20
.LVL710:
	.loc 7 664 0
	asr	w11, w21, 4
.LVL711:
	and	w6, w21, 15
.LVL712:
.LBB1503:
	.loc 7 667 0
	cmp	w8, w12
	ble	.L543
	add	w14, w20, w12
	mul	w10, w21, w12
	lsl	x13, x23, 2
	mov	x9, x24
	stp	d8, d9, [x29, 80]
	.cfi_offset 73, -56
	.cfi_offset 72, -64
	mul	w14, w14, w21
	add	x10, x22, x10, sxtw 2
	stp	d10, d11, [x29, 96]
	.cfi_offset 75, -40
	.cfi_offset 74, -48
	stp	d12, d13, [x29, 112]
	.cfi_offset 77, -24
	.cfi_offset 76, -32
	stp	d14, d15, [x29, 128]
	.cfi_offset 79, -8
	.cfi_offset 78, -16
.LVL713:
	.p2align 3
.L544:
.LBB1504:
	.loc 7 749 0
	add	x2, x9, x14, sxtw 2
.LVL714:
	mov	x3, x9
	mov	x1, x4
	mov	x7, x10
	mov	w5, w11
#APP
// 749 "/home/nvidia/wlk/arm_neon/box_filter/src/boxFilter.cpp" 1
	0:                                 
prfm      pldl1keep,   [x2, #128]  
ld1       {v0.4s, v1.4s, v2.4s, v3.4s},     [x2], #64   
prfm      pldl1keep,    [x3, #128]  
ld1       {v4.4s, v5.4s, v6.4s, v7.4s},      [x3], #64   
prfm      pldl1keep,   [x1, #128]   
ld1       {v8.4s, v9.4s, v10.4s, v11.4s},     [x1]         
fadd       v12.4s, v0.4s, v8.4s      
fadd       v13.4s, v1.4s, v9.4s      
fadd       v14.4s, v2.4s, v10.4s      
fadd       v15.4s, v3.4s, v11.4s      
fsub       v16.4s, v12.4s, v4.4s      
fsub       v17.4s, v13.4s, v5.4s      
fsub       v18.4s, v14.4s, v6.4s      
fsub       v19.4s, v15.4s, v7.4s      
st1       {v16.4s, v17.4s,v18.4s,v19.4s},     [x1], #64   
st1       {v16.4s, v17.4s,v18.4s,v19.4s},     [x7], #64   
subs      w5,   w5,  #1          
bne       0b                       

// 0 "" 2
.LVL715:
	.loc 7 751 0
#NO_APP
	cbz	w6, .L541
	.loc 7 753 0
	ldr	s1, [x2]
	.loc 7 751 0
	cmp	w6, 1
	.loc 7 753 0
	ldr	s0, [x1]
	fadd	s0, s0, s1
	str	s0, [x1]
	.loc 7 754 0
	ldr	s1, [x3]
	fsub	s0, s0, s1
	str	s0, [x1]
	.loc 7 755 0
	str	s0, [x7]
.LVL716:
	.loc 7 751 0
	beq	.L541
	.loc 7 753 0
	ldr	s1, [x2, 4]
	.loc 7 751 0
	cmp	w6, 2
	.loc 7 753 0
	ldr	s0, [x1, 4]
	fadd	s0, s0, s1
	str	s0, [x1, 4]
	.loc 7 754 0
	ldr	s1, [x3, 4]
	fsub	s0, s0, s1
	str	s0, [x1, 4]
	.loc 7 755 0
	str	s0, [x7, 4]
.LVL717:
	.loc 7 751 0
	beq	.L541
	.loc 7 753 0
	ldr	s1, [x2, 8]
	.loc 7 751 0
	cmp	w6, 3
	.loc 7 753 0
	ldr	s0, [x1, 8]
	fadd	s0, s0, s1
	str	s0, [x1, 8]
	.loc 7 754 0
	ldr	s1, [x3, 8]
	fsub	s0, s0, s1
	str	s0, [x1, 8]
	.loc 7 755 0
	str	s0, [x7, 8]
.LVL718:
	.loc 7 751 0
	beq	.L541
	.loc 7 753 0
	ldr	s1, [x2, 12]
	.loc 7 751 0
	cmp	w6, 4
	.loc 7 753 0
	ldr	s0, [x1, 12]
	fadd	s0, s0, s1
	str	s0, [x1, 12]
	.loc 7 754 0
	ldr	s1, [x3, 12]
	fsub	s0, s0, s1
	str	s0, [x1, 12]
	.loc 7 755 0
	str	s0, [x7, 12]
.LVL719:
	.loc 7 751 0
	beq	.L541
	.loc 7 753 0
	ldr	s1, [x2, 16]
	.loc 7 751 0
	cmp	w6, 5
	.loc 7 753 0
	ldr	s0, [x1, 16]
	fadd	s0, s0, s1
	str	s0, [x1, 16]
	.loc 7 754 0
	ldr	s1, [x3, 16]
	fsub	s0, s0, s1
	str	s0, [x1, 16]
	.loc 7 755 0
	str	s0, [x7, 16]
.LVL720:
	.loc 7 751 0
	beq	.L541
	.loc 7 753 0
	ldr	s1, [x2, 20]
	.loc 7 751 0
	cmp	w6, 6
	.loc 7 753 0
	ldr	s0, [x1, 20]
	fadd	s0, s0, s1
	str	s0, [x1, 20]
	.loc 7 754 0
	ldr	s1, [x3, 20]
	fsub	s0, s0, s1
	str	s0, [x1, 20]
	.loc 7 755 0
	str	s0, [x7, 20]
.LVL721:
	.loc 7 751 0
	beq	.L541
	.loc 7 753 0
	ldr	s1, [x2, 24]
	.loc 7 751 0
	cmp	w6, 7
	.loc 7 753 0
	ldr	s0, [x1, 24]
	fadd	s0, s0, s1
	str	s0, [x1, 24]
	.loc 7 754 0
	ldr	s1, [x3, 24]
	fsub	s0, s0, s1
	str	s0, [x1, 24]
	.loc 7 755 0
	str	s0, [x7, 24]
.LVL722:
	.loc 7 751 0
	beq	.L541
	.loc 7 753 0
	ldr	s1, [x2, 28]
	.loc 7 751 0
	cmp	w6, 8
	.loc 7 753 0
	ldr	s0, [x1, 28]
	fadd	s0, s0, s1
	str	s0, [x1, 28]
	.loc 7 754 0
	ldr	s1, [x3, 28]
	fsub	s0, s0, s1
	str	s0, [x1, 28]
	.loc 7 755 0
	str	s0, [x7, 28]
.LVL723:
	.loc 7 751 0
	beq	.L541
	.loc 7 753 0
	ldr	s1, [x2, 32]
	.loc 7 751 0
	cmp	w6, 9
	.loc 7 753 0
	ldr	s0, [x1, 32]
	fadd	s0, s0, s1
	str	s0, [x1, 32]
	.loc 7 754 0
	ldr	s1, [x3, 32]
	fsub	s0, s0, s1
	str	s0, [x1, 32]
	.loc 7 755 0
	str	s0, [x7, 32]
.LVL724:
	.loc 7 751 0
	beq	.L541
	.loc 7 753 0
	ldr	s1, [x2, 36]
	.loc 7 751 0
	cmp	w6, 10
	.loc 7 753 0
	ldr	s0, [x1, 36]
	fadd	s0, s0, s1
	str	s0, [x1, 36]
	.loc 7 754 0
	ldr	s1, [x3, 36]
	fsub	s0, s0, s1
	str	s0, [x1, 36]
	.loc 7 755 0
	str	s0, [x7, 36]
.LVL725:
	.loc 7 751 0
	beq	.L541
	.loc 7 753 0
	ldr	s1, [x2, 40]
	.loc 7 751 0
	cmp	w6, 11
	.loc 7 753 0
	ldr	s0, [x1, 40]
	fadd	s0, s0, s1
	str	s0, [x1, 40]
	.loc 7 754 0
	ldr	s1, [x3, 40]
	fsub	s0, s0, s1
	str	s0, [x1, 40]
	.loc 7 755 0
	str	s0, [x7, 40]
.LVL726:
	.loc 7 751 0
	beq	.L541
	.loc 7 753 0
	ldr	s1, [x2, 44]
	.loc 7 751 0
	cmp	w6, 12
	.loc 7 753 0
	ldr	s0, [x1, 44]
	fadd	s0, s0, s1
	str	s0, [x1, 44]
	.loc 7 754 0
	ldr	s1, [x3, 44]
	fsub	s0, s0, s1
	str	s0, [x1, 44]
	.loc 7 755 0
	str	s0, [x7, 44]
.LVL727:
	.loc 7 751 0
	beq	.L541
	.loc 7 753 0
	ldr	s1, [x2, 48]
	.loc 7 751 0
	cmp	w6, 13
	.loc 7 753 0
	ldr	s0, [x1, 48]
	fadd	s0, s0, s1
	str	s0, [x1, 48]
	.loc 7 754 0
	ldr	s1, [x3, 48]
	fsub	s0, s0, s1
	str	s0, [x1, 48]
	.loc 7 755 0
	str	s0, [x7, 48]
.LVL728:
	.loc 7 751 0
	beq	.L541
	.loc 7 753 0
	ldr	s1, [x2, 52]
	.loc 7 751 0
	cmp	w6, 14
	.loc 7 753 0
	ldr	s0, [x1, 52]
	fadd	s0, s0, s1
	str	s0, [x1, 52]
	.loc 7 754 0
	ldr	s1, [x3, 52]
	fsub	s0, s0, s1
	str	s0, [x1, 52]
	.loc 7 755 0
	str	s0, [x7, 52]
.LVL729:
	.loc 7 751 0
	beq	.L541
	.loc 7 753 0
	ldr	s1, [x2, 56]
	ldr	s0, [x1, 56]
	fadd	s0, s0, s1
	str	s0, [x1, 56]
	.loc 7 754 0
	ldr	s1, [x3, 56]
	fsub	s0, s0, s1
	str	s0, [x1, 56]
	.loc 7 755 0
	str	s0, [x7, 56]
.LVL730:
	.p2align 3
.L541:
.LBE1504:
	.loc 7 667 0 discriminator 2
	add	w12, w12, 1
.LVL731:
	add	x9, x9, x13
	add	x10, x10, x13
	cmp	w8, w12
	bne	.L544
	ldp	d8, d9, [x29, 80]
	.cfi_restore 73
	.cfi_restore 72
	ldp	d10, d11, [x29, 96]
	.cfi_restore 75
	.cfi_restore 74
	ldp	d12, d13, [x29, 112]
	.cfi_restore 77
	.cfi_restore 76
	ldp	d14, d15, [x29, 128]
	.cfi_restore 79
	.cfi_restore 78
.L543:
.LVL732:
.LBE1503:
.LBB1505:
	.loc 7 766 0
	cmp	w8, w19
	bge	.L538
	sub	w0, w8, w20
	mul	w1, w8, w21
	sub	w0, w0, #1
	sub	w5, w11, #1
	mov	x2, 16
	lsl	x23, x23, 2
	add	x22, x22, x1, sxtw 2
.LVL733:
	add	x5, x2, x5, uxtw 4
	mul	w21, w0, w21
.LVL734:
	add	x24, x24, x21, sxtw 2
.LVL735:
	.p2align 3
.L550:
.LBB1506:
	.loc 7 771 0
	mov	x1, x22
.LVL736:
	.loc 7 772 0
	mov	x2, x24
.LVL737:
	add	x3, x5, x22
.LBB1507:
	.loc 7 775 0
	mov	x0, x4
	cmp	w11, 0
	ble	.L683
.LVL738:
	.p2align 3
.L549:
.LBB1508:
.LBB1509:
.LBB1510:
	.loc 11 17161 0
	ldr	q0, [x0]
.LVL739:
.LBE1510:
.LBE1509:
.LBB1511:
.LBB1512:
	ldr	q1, [x2], 16
.LVL740:
.LBE1512:
.LBE1511:
.LBB1513:
.LBB1514:
	.loc 11 2155 0
	fsub	v0.4s, v0.4s, v1.4s
.LVL741:
.LBE1514:
.LBE1513:
.LBB1515:
.LBB1516:
	.loc 11 26870 0
	str	q0, [x0], 16
.LVL742:
.LBE1516:
.LBE1515:
.LBB1517:
.LBB1518:
	str	q0, [x1], 16
.LVL743:
.LBE1518:
.LBE1517:
.LBE1508:
	.loc 7 775 0
	cmp	x1, x3
	bne	.L549
.LVL744:
.L548:
.LBE1507:
	.loc 7 789 0
	cbz	w6, .L547
	.loc 7 791 0
	ldr	s0, [x0]
	.loc 7 789 0
	cmp	w6, 1
	.loc 7 791 0
	ldr	s1, [x2]
	fsub	s0, s0, s1
	str	s0, [x0]
	.loc 7 792 0
	str	s0, [x3]
.LVL745:
	.loc 7 789 0
	beq	.L547
	.loc 7 791 0
	ldr	s0, [x0, 4]
	.loc 7 789 0
	cmp	w6, 2
	.loc 7 791 0
	ldr	s1, [x2, 4]
	fsub	s0, s0, s1
	str	s0, [x0, 4]
	.loc 7 792 0
	str	s0, [x3, 4]
.LVL746:
	.loc 7 789 0
	beq	.L547
	.loc 7 791 0
	ldr	s0, [x0, 8]
	.loc 7 789 0
	cmp	w6, 3
	.loc 7 791 0
	ldr	s1, [x2, 8]
	fsub	s0, s0, s1
	str	s0, [x0, 8]
	.loc 7 792 0
	str	s0, [x3, 8]
.LVL747:
	.loc 7 789 0
	beq	.L547
	.loc 7 791 0
	ldr	s0, [x0, 12]
	.loc 7 789 0
	cmp	w6, 4
	.loc 7 791 0
	ldr	s1, [x2, 12]
	fsub	s0, s0, s1
	str	s0, [x0, 12]
	.loc 7 792 0
	str	s0, [x3, 12]
.LVL748:
	.loc 7 789 0
	beq	.L547
	.loc 7 791 0
	ldr	s0, [x0, 16]
	.loc 7 789 0
	cmp	w6, 5
	.loc 7 791 0
	ldr	s1, [x2, 16]
	fsub	s0, s0, s1
	str	s0, [x0, 16]
	.loc 7 792 0
	str	s0, [x3, 16]
.LVL749:
	.loc 7 789 0
	beq	.L547
	.loc 7 791 0
	ldr	s0, [x0, 20]
	.loc 7 789 0
	cmp	w6, 6
	.loc 7 791 0
	ldr	s1, [x2, 20]
	fsub	s0, s0, s1
	str	s0, [x0, 20]
	.loc 7 792 0
	str	s0, [x3, 20]
.LVL750:
	.loc 7 789 0
	beq	.L547
	.loc 7 791 0
	ldr	s0, [x0, 24]
	.loc 7 789 0
	cmp	w6, 7
	.loc 7 791 0
	ldr	s1, [x2, 24]
	fsub	s0, s0, s1
	str	s0, [x0, 24]
	.loc 7 792 0
	str	s0, [x3, 24]
.LVL751:
	.loc 7 789 0
	beq	.L547
	.loc 7 791 0
	ldr	s0, [x0, 28]
	.loc 7 789 0
	cmp	w6, 8
	.loc 7 791 0
	ldr	s1, [x2, 28]
	fsub	s0, s0, s1
	str	s0, [x0, 28]
	.loc 7 792 0
	str	s0, [x3, 28]
.LVL752:
	.loc 7 789 0
	beq	.L547
	.loc 7 791 0
	ldr	s0, [x0, 32]
	.loc 7 789 0
	cmp	w6, 9
	.loc 7 791 0
	ldr	s1, [x2, 32]
	fsub	s0, s0, s1
	str	s0, [x0, 32]
	.loc 7 792 0
	str	s0, [x3, 32]
.LVL753:
	.loc 7 789 0
	beq	.L547
	.loc 7 791 0
	ldr	s0, [x0, 36]
	.loc 7 789 0
	cmp	w6, 10
	.loc 7 791 0
	ldr	s1, [x2, 36]
	fsub	s0, s0, s1
	str	s0, [x0, 36]
	.loc 7 792 0
	str	s0, [x3, 36]
.LVL754:
	.loc 7 789 0
	beq	.L547
	.loc 7 791 0
	ldr	s0, [x0, 40]
	.loc 7 789 0
	cmp	w6, 11
	.loc 7 791 0
	ldr	s1, [x2, 40]
	fsub	s0, s0, s1
	str	s0, [x0, 40]
	.loc 7 792 0
	str	s0, [x3, 40]
.LVL755:
	.loc 7 789 0
	beq	.L547
	.loc 7 791 0
	ldr	s0, [x0, 44]
	.loc 7 789 0
	cmp	w6, 12
	.loc 7 791 0
	ldr	s1, [x2, 44]
	fsub	s0, s0, s1
	str	s0, [x0, 44]
	.loc 7 792 0
	str	s0, [x3, 44]
.LVL756:
	.loc 7 789 0
	beq	.L547
	.loc 7 791 0
	ldr	s0, [x0, 48]
	.loc 7 789 0
	cmp	w6, 13
	.loc 7 791 0
	ldr	s1, [x2, 48]
	fsub	s0, s0, s1
	str	s0, [x0, 48]
	.loc 7 792 0
	str	s0, [x3, 48]
.LVL757:
	.loc 7 789 0
	beq	.L547
	.loc 7 791 0
	ldr	s0, [x0, 52]
	.loc 7 789 0
	cmp	w6, 14
	.loc 7 791 0
	ldr	s1, [x2, 52]
	fsub	s0, s0, s1
	str	s0, [x0, 52]
	.loc 7 792 0
	str	s0, [x3, 52]
.LVL758:
	.loc 7 789 0
	beq	.L547
	.loc 7 791 0
	ldr	s0, [x0, 56]
	ldr	s1, [x2, 56]
	fsub	s0, s0, s1
	str	s0, [x0, 56]
	.loc 7 792 0
	str	s0, [x3, 56]
.LVL759:
	.p2align 3
.L547:
.LBE1506:
	.loc 7 766 0 discriminator 2
	add	w8, w8, 1
.LVL760:
	add	x22, x22, x23
	add	x24, x24, x23
	cmp	w19, w8
	bne	.L550
.L538:
.LVL761:
.LBE1505:
.LBB1520:
.LBB1521:
.LBB1522:
.LBB1523:
	.loc 9 179 0
	cbz	x4, .L510
.LVL762:
.LBE1523:
.LBE1522:
.LBE1521:
.LBE1520:
	.loc 7 801 0
	ldp	x19, x20, [sp, 16]
.LVL763:
.LBB1536:
.LBB1534:
.LBB1532:
.LBB1530:
.LBB1524:
.LBB1525:
.LBB1526:
	.loc 10 125 0
	mov	x0, x4
.LBE1526:
.LBE1525:
.LBE1524:
.LBE1530:
.LBE1532:
.LBE1534:
.LBE1536:
	.loc 7 801 0
	ldp	x21, x22, [sp, 32]
	ldp	x23, x24, [sp, 48]
	ldp	x29, x30, [sp], 144
	.cfi_remember_state
	.cfi_restore 30
	.cfi_restore 29
	.cfi_restore 23
	.cfi_restore 24
	.cfi_restore 21
	.cfi_restore 22
	.cfi_restore 19
	.cfi_restore 20
	.cfi_def_cfa 31, 0
.LBB1537:
.LBB1535:
.LBB1533:
.LBB1531:
.LBB1529:
.LBB1528:
.LBB1527:
	.loc 10 125 0
	b	_ZdlPv
.LVL764:
	.p2align 2
.L683:
	.cfi_restore_state
.LBE1527:
.LBE1528:
.LBE1529:
.LBE1531:
.LBE1533:
.LBE1535:
.LBE1537:
.LBB1538:
.LBB1519:
	.loc 7 771 0
	mov	x3, x22
	b	.L548
.LVL765:
	.p2align 2
.L680:
.LBE1519:
.LBE1538:
.LBB1539:
.LBB1459:
.LBB1457:
	.loc 7 564 0
	blt	.L513
	b	.L514
.L560:
.LVL766:
	.p2align 2
.L510:
.LBE1457:
.LBE1459:
.LBE1539:
	.loc 7 801 0
	ldp	x19, x20, [sp, 16]
.LVL767:
	ldp	x21, x22, [sp, 32]
	ldp	x23, x24, [sp, 48]
	ldp	x29, x30, [sp], 144
	.cfi_remember_state
	.cfi_restore 30
	.cfi_restore 29
	.cfi_restore 23
	.cfi_restore 24
	.cfi_restore 21
	.cfi_restore 22
	.cfi_restore 19
	.cfi_restore 20
	.cfi_def_cfa 31, 0
	ret
.LVL768:
.L682:
	.cfi_restore_state
.LBB1540:
	.loc 7 625 0
	blt	.L525
	sub	w2, w9, #1
	b	.L526
.LVL769:
	.p2align 2
.L555:
.LBE1540:
.LBB1541:
.LBB1475:
.LBB1474:
.LBB1473:
.LBB1472:
	.loc 9 172 0
	mov	x4, 0
	b	.L522
.LVL770:
.L681:
	.cfi_offset 25, -80
	stp	d8, d9, [x29, 80]
	.cfi_offset 73, -56
	.cfi_offset 72, -64
	stp	d10, d11, [x29, 96]
	.cfi_offset 75, -40
	.cfi_offset 74, -48
	stp	d12, d13, [x29, 112]
	.cfi_offset 77, -24
	.cfi_offset 76, -32
	stp	d14, d15, [x29, 128]
	.cfi_offset 79, -8
	.cfi_offset 78, -16
.LBB1471:
.LBB1470:
.LBB1469:
	.loc 10 102 0
	bl	_ZSt17__throw_bad_allocv
.LVL771:
.LBE1469:
.LBE1470:
.LBE1471:
.LBE1472:
.LBE1473:
.LBE1474:
.LBE1475:
.LBE1541:
	.cfi_endproc
.LFE11838:
	.size	_Z22boxFilterArmNeon_assemPfS_iiiS_, .-_Z22boxFilterArmNeon_assemPfS_iiiS_
	.align	2
	.p2align 3,,7
	.global	_Z12absval_naivePiii
	.type	_Z12absval_naivePiii, %function
_Z12absval_naivePiii:
.LFB11839:
	.loc 7 804 0
	.cfi_startproc
.LVL772:
	.loc 7 805 0
	mul	w2, w1, w2
.LVL773:
.LBB1542:
	.loc 7 806 0
	cmp	w2, 0
	ble	.L684
	sub	w2, w2, #1
.LVL774:
	add	x1, x0, 4
.LVL775:
	add	x2, x1, x2, uxtw 2
.LVL776:
	.p2align 3
.L687:
	.loc 7 808 0
	ldr	w1, [x0]
	tbz	w1, #31, .L686
	.loc 7 810 0
	neg	w1, w1
	str	w1, [x0]
.L686:
	add	x0, x0, 4
	.loc 7 806 0 discriminator 2
	cmp	x0, x2
	bne	.L687
.L684:
.LBE1542:
	.loc 7 813 0
	ret
	.cfi_endproc
.LFE11839:
	.size	_Z12absval_naivePiii, .-_Z12absval_naivePiii
	.align	2
	.p2align 3,,7
	.global	_Z15absval_arm_neonPiii
	.type	_Z15absval_arm_neonPiii, %function
_Z15absval_arm_neonPiii:
.LFB11840:
	.loc 7 816 0
	.cfi_startproc
.LVL777:
	.loc 7 817 0
	mul	w1, w1, w2
.LVL778:
	and	w4, w1, 3
	.loc 7 818 0
	asr	w1, w1, 2
.LVL779:
.LBB1543:
	.loc 7 822 0
	cmp	w1, 0
	ble	.L694
	sub	w3, w1, #1
.LBE1543:
	.loc 7 821 0
	mov	x1, x0
.LVL780:
	ubfiz	x2, x3, 4, 32
.LVL781:
	add	x2, x2, 16
	add	x2, x0, x2
.LVL782:
	.p2align 3
.L693:
.LBB1551:
.LBB1544:
.LBB1545:
.LBB1546:
	.loc 11 17213 0
	ldr	q0, [x1]
.LVL783:
.LBE1546:
.LBE1545:
.LBB1547:
.LBB1548:
	.loc 11 11815 0
	abs	v0.4s, v0.4s
.LVL784:
.LBE1548:
.LBE1547:
.LBB1549:
.LBB1550:
	.loc 11 26922 0
	str	q0, [x1], 16
.LVL785:
.LBE1550:
.LBE1549:
.LBE1544:
	.loc 7 822 0
	cmp	x1, x2
	bne	.L693
	add	x0, x0, x3, sxtw 4
.LVL786:
	add	x0, x0, 16
.LVL787:
.L694:
.LBE1551:
	.loc 7 832 0
	cbz	w4, .L689
	.loc 7 834 0
	ldr	w1, [x0]
	tbnz	w1, #31, .L709
.L695:
.LVL788:
	.loc 7 832 0
	cmp	w4, 1
	beq	.L689
	.loc 7 834 0
	ldr	w1, [x0, 4]
	tbnz	w1, #31, .L710
.LVL789:
	.loc 7 832 0
	cmp	w4, 2
	beq	.L689
.LVL790:
.L712:
	.loc 7 834 0
	ldr	w1, [x0, 8]
	tbnz	w1, #31, .L711
.LVL791:
.L689:
	.loc 7 840 0
	ret
.LVL792:
	.p2align 2
.L709:
	.loc 7 836 0
	neg	w1, w1
	str	w1, [x0]
	b	.L695
.LVL793:
	.p2align 2
.L710:
	neg	w1, w1
	str	w1, [x0, 4]
.LVL794:
	.loc 7 832 0
	cmp	w4, 2
	bne	.L712
	b	.L689
.LVL795:
	.p2align 2
.L711:
	.loc 7 836 0
	neg	w1, w1
	str	w1, [x0, 8]
.LVL796:
	.loc 7 840 0
	ret
	.cfi_endproc
.LFE11840:
	.size	_Z15absval_arm_neonPiii, .-_Z15absval_arm_neonPiii
	.align	2
	.p2align 3,,7
	.global	_Z17absval_neon_assemPiii
	.type	_Z17absval_neon_assemPiii, %function
_Z17absval_neon_assemPiii:
.LFB11841:
	.loc 7 843 0
	.cfi_startproc
.LVL797:
	.loc 7 845 0
	mul	w1, w1, w2
.LVL798:
	and	w2, w1, 3
.LVL799:
	.loc 7 846 0
	asr	w1, w1, 2
.LVL800:
	.loc 7 853 0
	cmp	w1, 0
	ble	.L714
	.loc 7 868 0
#APP
// 868 "/home/nvidia/wlk/arm_neon/box_filter/src/boxFilter.cpp" 1
	0:                                     
prfm           pldl1keep, [x0, #128]   
ld1            {v0.4s},   [x0]         
abs            v0.4s,   v0.4s          
st1            {v0.4s}, [x0], #16      
subs           w1, w1, #1            
bne            0b                      

// 0 "" 2
.LVL801:
#NO_APP
.L714:
	.loc 7 885 0 discriminator 1
	cbz	w2, .L713
	.loc 7 887 0
	ldr	w1, [x0]
	tbnz	w1, #31, .L727
.L716:
.LVL802:
	.loc 7 885 0
	cmp	w2, 1
	beq	.L713
	.loc 7 887 0
	ldr	w1, [x0]
	tbnz	w1, #31, .L728
.LVL803:
.L713:
	.loc 7 893 0
	ret
.LVL804:
	.p2align 2
.L727:
	.loc 7 889 0
	neg	w1, w1
	str	w1, [x0], 4
.LVL805:
	b	.L716
.LVL806:
	.p2align 2
.L728:
	neg	w1, w1
	str	w1, [x0]
.LVL807:
	.loc 7 885 0
	cmp	w2, 2
	beq	.L713
.LVL808:
	.loc 7 887 0
	ldr	w1, [x0, 4]
	tbz	w1, #31, .L713
	.loc 7 889 0
	neg	w1, w1
	str	w1, [x0, 4]
.LVL809:
	.loc 7 893 0
	ret
	.cfi_endproc
.LFE11841:
	.size	_Z17absval_neon_assemPiii, .-_Z17absval_neon_assemPiii
	.section	.text.startup,"ax",@progbits
	.align	2
	.p2align 3,,7
	.type	_GLOBAL__sub_I__Z9print_resPhii, %function
_GLOBAL__sub_I__Z9print_resPhii:
.LFB15272:
	.loc 7 893 0
	.cfi_startproc
.LVL810:
	stp	x29, x30, [sp, -48]!
	.cfi_def_cfa_offset 48
	.cfi_offset 29, -48
	.cfi_offset 30, -40
	add	x29, sp, 0
	.cfi_def_cfa_register 29
	stp	x19, x20, [sp, 16]
	.cfi_offset 19, -32
	.cfi_offset 20, -24
.LBB1554:
.LBB1555:
	.file 12 "/usr/include/c++/7/iostream"
	.loc 12 74 0
	adrp	x19, .LANCHOR0
	add	x19, x19, :lo12:.LANCHOR0
.LBE1555:
.LBE1554:
	.loc 7 893 0
	str	x21, [sp, 32]
	.cfi_offset 21, -16
.LBB1561:
.LBB1556:
	.loc 12 74 0
	mov	x0, x19
	bl	_ZNSt8ios_base4InitC1Ev
.LVL811:
	adrp	x0, :got:_ZNSt8ios_base4InitD1Ev
	adrp	x20, __dso_handle
	add	x21, x20, :lo12:__dso_handle
	mov	x1, x19
	ldr	x0, [x0, #:got_lo12:_ZNSt8ios_base4InitD1Ev]
	mov	x2, x21
	bl	__cxa_atexit
.LVL812:
	.loc 1 174 0
	adrp	x2, _ZGVN7cvflann7anyimpl12SinglePolicyINS0_9empty_anyEE6policyE
	ldr	x0, [x2, #:lo12:_ZGVN7cvflann7anyimpl12SinglePolicyINS0_9empty_anyEE6policyE]
	tbz	x0, 0, .L740
.L730:
	adrp	x2, _ZGVN7cvflann7anyimpl12SinglePolicyIPKcE6policyE
	ldr	x0, [x2, #:lo12:_ZGVN7cvflann7anyimpl12SinglePolicyIPKcE6policyE]
	tbz	x0, 0, .L741
.L731:
	adrp	x2, _ZGVN7cvflann7anyimpl12SinglePolicyIiE6policyE
	ldr	x0, [x2, #:lo12:_ZGVN7cvflann7anyimpl12SinglePolicyIiE6policyE]
	tbz	x0, 0, .L742
.L732:
	adrp	x2, _ZGVN7cvflann7anyimpl12SinglePolicyIfE6policyE
	ldr	x0, [x2, #:lo12:_ZGVN7cvflann7anyimpl12SinglePolicyIfE6policyE]
	tbz	x0, 0, .L743
.L733:
	adrp	x2, _ZGVN7cvflann7anyimpl12SinglePolicyIbE6policyE
	ldr	x0, [x2, #:lo12:_ZGVN7cvflann7anyimpl12SinglePolicyIbE6policyE]
	tbz	x0, 0, .L744
.L734:
	adrp	x2, _ZGVN7cvflann7anyimpl12SinglePolicyINS_17flann_algorithm_tEE6policyE
	ldr	x0, [x2, #:lo12:_ZGVN7cvflann7anyimpl12SinglePolicyINS_17flann_algorithm_tEE6policyE]
	tbz	x0, 0, .L745
.L735:
	adrp	x2, _ZGVN7cvflann7anyimpl12SinglePolicyINS_20flann_centers_init_tEE6policyE
	ldr	x0, [x2, #:lo12:_ZGVN7cvflann7anyimpl12SinglePolicyINS_20flann_centers_init_tEE6policyE]
	tbz	x0, 0, .L746
.L736:
	adrp	x2, _ZGVN7cvflann7anyimpl12SinglePolicyIjE6policyE
	ldr	x0, [x2, #:lo12:_ZGVN7cvflann7anyimpl12SinglePolicyIjE6policyE]
	tbz	x0, 0, .L747
.L737:
	adrp	x2, _ZGVN7cvflann7anyimpl12SinglePolicyIN2cv6StringEE6policyE
	ldr	x0, [x2, #:lo12:_ZGVN7cvflann7anyimpl12SinglePolicyIN2cv6StringEE6policyE]
	tbz	x0, 0, .L748
.LBE1556:
.LBE1561:
	.loc 7 893 0
	ldp	x19, x20, [sp, 16]
	ldr	x21, [sp, 32]
	ldp	x29, x30, [sp], 48
	.cfi_remember_state
	.cfi_restore 30
	.cfi_restore 29
	.cfi_restore 21
	.cfi_restore 19
	.cfi_restore 20
	.cfi_def_cfa 31, 0
	ret
.L748:
	.cfi_restore_state
.LBB1562:
.LBB1557:
	.loc 1 174 0
	mov	x3, 1
.LBE1557:
.LBE1562:
	.loc 7 893 0
	ldr	x21, [sp, 32]
.LBB1563:
.LBB1558:
	.loc 1 174 0
	str	x3, [x2, #:lo12:_ZGVN7cvflann7anyimpl12SinglePolicyIN2cv6StringEE6policyE]
	add	x2, x20, :lo12:__dso_handle
.LBE1558:
.LBE1563:
	.loc 7 893 0
	ldp	x19, x20, [sp, 16]
.LBB1564:
.LBB1559:
	.loc 1 174 0
	adrp	x1, _ZN7cvflann7anyimpl12SinglePolicyIN2cv6StringEE6policyE
.LBE1559:
.LBE1564:
	.loc 7 893 0
	ldp	x29, x30, [sp], 48
	.cfi_remember_state
	.cfi_restore 30
	.cfi_restore 29
	.cfi_restore 21
	.cfi_restore 19
	.cfi_restore 20
	.cfi_def_cfa 31, 0
.LBB1565:
.LBB1560:
	.loc 1 174 0
	adrp	x0, _ZN7cvflann7anyimpl14big_any_policyIN2cv6StringEED1Ev
	add	x1, x1, :lo12:_ZN7cvflann7anyimpl12SinglePolicyIN2cv6StringEE6policyE
	add	x0, x0, :lo12:_ZN7cvflann7anyimpl14big_any_policyIN2cv6StringEED1Ev
	b	__cxa_atexit
.LVL813:
.L747:
	.cfi_restore_state
	mov	x3, 1
	adrp	x1, _ZN7cvflann7anyimpl12SinglePolicyIjE6policyE
	str	x3, [x2, #:lo12:_ZGVN7cvflann7anyimpl12SinglePolicyIjE6policyE]
	adrp	x0, _ZN7cvflann7anyimpl16small_any_policyIjED1Ev
	add	x2, x20, :lo12:__dso_handle
	add	x1, x1, :lo12:_ZN7cvflann7anyimpl12SinglePolicyIjE6policyE
	add	x0, x0, :lo12:_ZN7cvflann7anyimpl16small_any_policyIjED1Ev
	bl	__cxa_atexit
.LVL814:
	b	.L737
.L746:
	mov	x3, 1
	adrp	x1, _ZN7cvflann7anyimpl12SinglePolicyINS_20flann_centers_init_tEE6policyE
	str	x3, [x2, #:lo12:_ZGVN7cvflann7anyimpl12SinglePolicyINS_20flann_centers_init_tEE6policyE]
	adrp	x0, _ZN7cvflann7anyimpl14big_any_policyINS_20flann_centers_init_tEED1Ev
	add	x2, x20, :lo12:__dso_handle
	add	x1, x1, :lo12:_ZN7cvflann7anyimpl12SinglePolicyINS_20flann_centers_init_tEE6policyE
	add	x0, x0, :lo12:_ZN7cvflann7anyimpl14big_any_policyINS_20flann_centers_init_tEED1Ev
	bl	__cxa_atexit
.LVL815:
	b	.L736
.L745:
	mov	x3, 1
	adrp	x1, _ZN7cvflann7anyimpl12SinglePolicyINS_17flann_algorithm_tEE6policyE
	str	x3, [x2, #:lo12:_ZGVN7cvflann7anyimpl12SinglePolicyINS_17flann_algorithm_tEE6policyE]
	adrp	x0, _ZN7cvflann7anyimpl14big_any_policyINS_17flann_algorithm_tEED1Ev
	add	x2, x20, :lo12:__dso_handle
	add	x1, x1, :lo12:_ZN7cvflann7anyimpl12SinglePolicyINS_17flann_algorithm_tEE6policyE
	add	x0, x0, :lo12:_ZN7cvflann7anyimpl14big_any_policyINS_17flann_algorithm_tEED1Ev
	bl	__cxa_atexit
.LVL816:
	b	.L735
.L744:
	mov	x3, 1
	adrp	x1, _ZN7cvflann7anyimpl12SinglePolicyIbE6policyE
	str	x3, [x2, #:lo12:_ZGVN7cvflann7anyimpl12SinglePolicyIbE6policyE]
	adrp	x0, _ZN7cvflann7anyimpl16small_any_policyIbED1Ev
	add	x2, x20, :lo12:__dso_handle
	add	x1, x1, :lo12:_ZN7cvflann7anyimpl12SinglePolicyIbE6policyE
	add	x0, x0, :lo12:_ZN7cvflann7anyimpl16small_any_policyIbED1Ev
	bl	__cxa_atexit
.LVL817:
	b	.L734
.L743:
	mov	x3, 1
	adrp	x1, _ZN7cvflann7anyimpl12SinglePolicyIfE6policyE
	str	x3, [x2, #:lo12:_ZGVN7cvflann7anyimpl12SinglePolicyIfE6policyE]
	adrp	x0, _ZN7cvflann7anyimpl16small_any_policyIfED1Ev
	add	x2, x20, :lo12:__dso_handle
	add	x1, x1, :lo12:_ZN7cvflann7anyimpl12SinglePolicyIfE6policyE
	add	x0, x0, :lo12:_ZN7cvflann7anyimpl16small_any_policyIfED1Ev
	bl	__cxa_atexit
.LVL818:
	b	.L733
.L742:
	mov	x3, 1
	adrp	x1, _ZN7cvflann7anyimpl12SinglePolicyIiE6policyE
	str	x3, [x2, #:lo12:_ZGVN7cvflann7anyimpl12SinglePolicyIiE6policyE]
	adrp	x0, _ZN7cvflann7anyimpl16small_any_policyIiED1Ev
	add	x2, x20, :lo12:__dso_handle
	add	x1, x1, :lo12:_ZN7cvflann7anyimpl12SinglePolicyIiE6policyE
	add	x0, x0, :lo12:_ZN7cvflann7anyimpl16small_any_policyIiED1Ev
	bl	__cxa_atexit
.LVL819:
	b	.L732
.L741:
	mov	x3, 1
	adrp	x1, _ZN7cvflann7anyimpl12SinglePolicyIPKcE6policyE
	str	x3, [x2, #:lo12:_ZGVN7cvflann7anyimpl12SinglePolicyIPKcE6policyE]
	adrp	x0, _ZN7cvflann7anyimpl16small_any_policyIPKcED1Ev
	add	x2, x20, :lo12:__dso_handle
	add	x1, x1, :lo12:_ZN7cvflann7anyimpl12SinglePolicyIPKcE6policyE
	add	x0, x0, :lo12:_ZN7cvflann7anyimpl16small_any_policyIPKcED1Ev
	bl	__cxa_atexit
.LVL820:
	b	.L731
.L740:
	mov	x3, 1
	adrp	x1, _ZN7cvflann7anyimpl12SinglePolicyINS0_9empty_anyEE6policyE
	str	x3, [x2, #:lo12:_ZGVN7cvflann7anyimpl12SinglePolicyINS0_9empty_anyEE6policyE]
	adrp	x0, _ZN7cvflann7anyimpl14big_any_policyINS0_9empty_anyEED1Ev
	mov	x2, x21
	add	x1, x1, :lo12:_ZN7cvflann7anyimpl12SinglePolicyINS0_9empty_anyEE6policyE
	add	x0, x0, :lo12:_ZN7cvflann7anyimpl14big_any_policyINS0_9empty_anyEED1Ev
	bl	__cxa_atexit
.LVL821:
	b	.L730
.LBE1560:
.LBE1565:
	.cfi_endproc
.LFE15272:
	.size	_GLOBAL__sub_I__Z9print_resPhii, .-_GLOBAL__sub_I__Z9print_resPhii
	.section	.init_array,"aw"
	.align	3
	.xword	_GLOBAL__sub_I__Z9print_resPhii
	.weak	_ZTSN2cv6StringE
	.section	.rodata._ZTSN2cv6StringE,"aG",@progbits,_ZTSN2cv6StringE,comdat
	.align	3
	.type	_ZTSN2cv6StringE, %object
	.size	_ZTSN2cv6StringE, 13
_ZTSN2cv6StringE:
	.string	"N2cv6StringE"
	.weak	_ZTIN2cv6StringE
	.section	.data.rel.ro._ZTIN2cv6StringE,"awG",@progbits,_ZTIN2cv6StringE,comdat
	.align	3
	.type	_ZTIN2cv6StringE, %object
	.size	_ZTIN2cv6StringE, 16
_ZTIN2cv6StringE:
	.xword	_ZTVN10__cxxabiv117__class_type_infoE+16
	.xword	_ZTSN2cv6StringE
	.weak	_ZTSN7cvflann17flann_algorithm_tE
	.section	.rodata._ZTSN7cvflann17flann_algorithm_tE,"aG",@progbits,_ZTSN7cvflann17flann_algorithm_tE,comdat
	.align	3
	.type	_ZTSN7cvflann17flann_algorithm_tE, %object
	.size	_ZTSN7cvflann17flann_algorithm_tE, 30
_ZTSN7cvflann17flann_algorithm_tE:
	.string	"N7cvflann17flann_algorithm_tE"
	.weak	_ZTIN7cvflann17flann_algorithm_tE
	.section	.data.rel.ro._ZTIN7cvflann17flann_algorithm_tE,"awG",@progbits,_ZTIN7cvflann17flann_algorithm_tE,comdat
	.align	3
	.type	_ZTIN7cvflann17flann_algorithm_tE, %object
	.size	_ZTIN7cvflann17flann_algorithm_tE, 16
_ZTIN7cvflann17flann_algorithm_tE:
	.xword	_ZTVN10__cxxabiv116__enum_type_infoE+16
	.xword	_ZTSN7cvflann17flann_algorithm_tE
	.weak	_ZTSN7cvflann20flann_centers_init_tE
	.section	.rodata._ZTSN7cvflann20flann_centers_init_tE,"aG",@progbits,_ZTSN7cvflann20flann_centers_init_tE,comdat
	.align	3
	.type	_ZTSN7cvflann20flann_centers_init_tE, %object
	.size	_ZTSN7cvflann20flann_centers_init_tE, 33
_ZTSN7cvflann20flann_centers_init_tE:
	.string	"N7cvflann20flann_centers_init_tE"
	.weak	_ZTIN7cvflann20flann_centers_init_tE
	.section	.data.rel.ro._ZTIN7cvflann20flann_centers_init_tE,"awG",@progbits,_ZTIN7cvflann20flann_centers_init_tE,comdat
	.align	3
	.type	_ZTIN7cvflann20flann_centers_init_tE, %object
	.size	_ZTIN7cvflann20flann_centers_init_tE, 16
_ZTIN7cvflann20flann_centers_init_tE:
	.xword	_ZTVN10__cxxabiv116__enum_type_infoE+16
	.xword	_ZTSN7cvflann20flann_centers_init_tE
	.weak	_ZGVN7cvflann7anyimpl12SinglePolicyIN2cv6StringEE6policyE
	.section	.bss._ZGVN7cvflann7anyimpl12SinglePolicyIN2cv6StringEE6policyE,"awG",@nobits,_ZGVN7cvflann7anyimpl12SinglePolicyIN2cv6StringEE6policyE,comdat
	.align	3
	.type	_ZGVN7cvflann7anyimpl12SinglePolicyIN2cv6StringEE6policyE, %gnu_unique_object
	.size	_ZGVN7cvflann7anyimpl12SinglePolicyIN2cv6StringEE6policyE, 8
_ZGVN7cvflann7anyimpl12SinglePolicyIN2cv6StringEE6policyE:
	.zero	8
	.weak	_ZGVN7cvflann7anyimpl12SinglePolicyIjE6policyE
	.section	.bss._ZGVN7cvflann7anyimpl12SinglePolicyIjE6policyE,"awG",@nobits,_ZGVN7cvflann7anyimpl12SinglePolicyIjE6policyE,comdat
	.align	3
	.type	_ZGVN7cvflann7anyimpl12SinglePolicyIjE6policyE, %gnu_unique_object
	.size	_ZGVN7cvflann7anyimpl12SinglePolicyIjE6policyE, 8
_ZGVN7cvflann7anyimpl12SinglePolicyIjE6policyE:
	.zero	8
	.weak	_ZGVN7cvflann7anyimpl12SinglePolicyINS_20flann_centers_init_tEE6policyE
	.section	.bss._ZGVN7cvflann7anyimpl12SinglePolicyINS_20flann_centers_init_tEE6policyE,"awG",@nobits,_ZGVN7cvflann7anyimpl12SinglePolicyINS_20flann_centers_init_tEE6policyE,comdat
	.align	3
	.type	_ZGVN7cvflann7anyimpl12SinglePolicyINS_20flann_centers_init_tEE6policyE, %gnu_unique_object
	.size	_ZGVN7cvflann7anyimpl12SinglePolicyINS_20flann_centers_init_tEE6policyE, 8
_ZGVN7cvflann7anyimpl12SinglePolicyINS_20flann_centers_init_tEE6policyE:
	.zero	8
	.weak	_ZGVN7cvflann7anyimpl12SinglePolicyINS_17flann_algorithm_tEE6policyE
	.section	.bss._ZGVN7cvflann7anyimpl12SinglePolicyINS_17flann_algorithm_tEE6policyE,"awG",@nobits,_ZGVN7cvflann7anyimpl12SinglePolicyINS_17flann_algorithm_tEE6policyE,comdat
	.align	3
	.type	_ZGVN7cvflann7anyimpl12SinglePolicyINS_17flann_algorithm_tEE6policyE, %gnu_unique_object
	.size	_ZGVN7cvflann7anyimpl12SinglePolicyINS_17flann_algorithm_tEE6policyE, 8
_ZGVN7cvflann7anyimpl12SinglePolicyINS_17flann_algorithm_tEE6policyE:
	.zero	8
	.weak	_ZGVN7cvflann7anyimpl12SinglePolicyIbE6policyE
	.section	.bss._ZGVN7cvflann7anyimpl12SinglePolicyIbE6policyE,"awG",@nobits,_ZGVN7cvflann7anyimpl12SinglePolicyIbE6policyE,comdat
	.align	3
	.type	_ZGVN7cvflann7anyimpl12SinglePolicyIbE6policyE, %gnu_unique_object
	.size	_ZGVN7cvflann7anyimpl12SinglePolicyIbE6policyE, 8
_ZGVN7cvflann7anyimpl12SinglePolicyIbE6policyE:
	.zero	8
	.weak	_ZGVN7cvflann7anyimpl12SinglePolicyIfE6policyE
	.section	.bss._ZGVN7cvflann7anyimpl12SinglePolicyIfE6policyE,"awG",@nobits,_ZGVN7cvflann7anyimpl12SinglePolicyIfE6policyE,comdat
	.align	3
	.type	_ZGVN7cvflann7anyimpl12SinglePolicyIfE6policyE, %gnu_unique_object
	.size	_ZGVN7cvflann7anyimpl12SinglePolicyIfE6policyE, 8
_ZGVN7cvflann7anyimpl12SinglePolicyIfE6policyE:
	.zero	8
	.weak	_ZGVN7cvflann7anyimpl12SinglePolicyIiE6policyE
	.section	.bss._ZGVN7cvflann7anyimpl12SinglePolicyIiE6policyE,"awG",@nobits,_ZGVN7cvflann7anyimpl12SinglePolicyIiE6policyE,comdat
	.align	3
	.type	_ZGVN7cvflann7anyimpl12SinglePolicyIiE6policyE, %gnu_unique_object
	.size	_ZGVN7cvflann7anyimpl12SinglePolicyIiE6policyE, 8
_ZGVN7cvflann7anyimpl12SinglePolicyIiE6policyE:
	.zero	8
	.weak	_ZGVN7cvflann7anyimpl12SinglePolicyIPKcE6policyE
	.section	.bss._ZGVN7cvflann7anyimpl12SinglePolicyIPKcE6policyE,"awG",@nobits,_ZGVN7cvflann7anyimpl12SinglePolicyIPKcE6policyE,comdat
	.align	3
	.type	_ZGVN7cvflann7anyimpl12SinglePolicyIPKcE6policyE, %gnu_unique_object
	.size	_ZGVN7cvflann7anyimpl12SinglePolicyIPKcE6policyE, 8
_ZGVN7cvflann7anyimpl12SinglePolicyIPKcE6policyE:
	.zero	8
	.weak	_ZGVN7cvflann7anyimpl12SinglePolicyINS0_9empty_anyEE6policyE
	.section	.bss._ZGVN7cvflann7anyimpl12SinglePolicyINS0_9empty_anyEE6policyE,"awG",@nobits,_ZGVN7cvflann7anyimpl12SinglePolicyINS0_9empty_anyEE6policyE,comdat
	.align	3
	.type	_ZGVN7cvflann7anyimpl12SinglePolicyINS0_9empty_anyEE6policyE, %gnu_unique_object
	.size	_ZGVN7cvflann7anyimpl12SinglePolicyINS0_9empty_anyEE6policyE, 8
_ZGVN7cvflann7anyimpl12SinglePolicyINS0_9empty_anyEE6policyE:
	.zero	8
	.weak	_ZN7cvflann7anyimpl12SinglePolicyIN2cv6StringEE6policyE
	.section	.data.rel.local._ZN7cvflann7anyimpl12SinglePolicyIN2cv6StringEE6policyE,"awG",@progbits,_ZN7cvflann7anyimpl12SinglePolicyIN2cv6StringEE6policyE,comdat
	.align	3
	.type	_ZN7cvflann7anyimpl12SinglePolicyIN2cv6StringEE6policyE, %gnu_unique_object
	.size	_ZN7cvflann7anyimpl12SinglePolicyIN2cv6StringEE6policyE, 8
_ZN7cvflann7anyimpl12SinglePolicyIN2cv6StringEE6policyE:
	.xword	_ZTVN7cvflann7anyimpl14big_any_policyIN2cv6StringEEE+16
	.weak	_ZN7cvflann7anyimpl12SinglePolicyIjE6policyE
	.section	.data.rel.local._ZN7cvflann7anyimpl12SinglePolicyIjE6policyE,"awG",@progbits,_ZN7cvflann7anyimpl12SinglePolicyIjE6policyE,comdat
	.align	3
	.type	_ZN7cvflann7anyimpl12SinglePolicyIjE6policyE, %gnu_unique_object
	.size	_ZN7cvflann7anyimpl12SinglePolicyIjE6policyE, 8
_ZN7cvflann7anyimpl12SinglePolicyIjE6policyE:
	.xword	_ZTVN7cvflann7anyimpl16small_any_policyIjEE+16
	.weak	_ZN7cvflann7anyimpl12SinglePolicyINS_20flann_centers_init_tEE6policyE
	.section	.data.rel.local._ZN7cvflann7anyimpl12SinglePolicyINS_20flann_centers_init_tEE6policyE,"awG",@progbits,_ZN7cvflann7anyimpl12SinglePolicyINS_20flann_centers_init_tEE6policyE,comdat
	.align	3
	.type	_ZN7cvflann7anyimpl12SinglePolicyINS_20flann_centers_init_tEE6policyE, %gnu_unique_object
	.size	_ZN7cvflann7anyimpl12SinglePolicyINS_20flann_centers_init_tEE6policyE, 8
_ZN7cvflann7anyimpl12SinglePolicyINS_20flann_centers_init_tEE6policyE:
	.xword	_ZTVN7cvflann7anyimpl14big_any_policyINS_20flann_centers_init_tEEE+16
	.weak	_ZN7cvflann7anyimpl12SinglePolicyINS_17flann_algorithm_tEE6policyE
	.section	.data.rel.local._ZN7cvflann7anyimpl12SinglePolicyINS_17flann_algorithm_tEE6policyE,"awG",@progbits,_ZN7cvflann7anyimpl12SinglePolicyINS_17flann_algorithm_tEE6policyE,comdat
	.align	3
	.type	_ZN7cvflann7anyimpl12SinglePolicyINS_17flann_algorithm_tEE6policyE, %gnu_unique_object
	.size	_ZN7cvflann7anyimpl12SinglePolicyINS_17flann_algorithm_tEE6policyE, 8
_ZN7cvflann7anyimpl12SinglePolicyINS_17flann_algorithm_tEE6policyE:
	.xword	_ZTVN7cvflann7anyimpl14big_any_policyINS_17flann_algorithm_tEEE+16
	.weak	_ZN7cvflann7anyimpl12SinglePolicyIbE6policyE
	.section	.data.rel.local._ZN7cvflann7anyimpl12SinglePolicyIbE6policyE,"awG",@progbits,_ZN7cvflann7anyimpl12SinglePolicyIbE6policyE,comdat
	.align	3
	.type	_ZN7cvflann7anyimpl12SinglePolicyIbE6policyE, %gnu_unique_object
	.size	_ZN7cvflann7anyimpl12SinglePolicyIbE6policyE, 8
_ZN7cvflann7anyimpl12SinglePolicyIbE6policyE:
	.xword	_ZTVN7cvflann7anyimpl16small_any_policyIbEE+16
	.weak	_ZN7cvflann7anyimpl12SinglePolicyIfE6policyE
	.section	.data.rel.local._ZN7cvflann7anyimpl12SinglePolicyIfE6policyE,"awG",@progbits,_ZN7cvflann7anyimpl12SinglePolicyIfE6policyE,comdat
	.align	3
	.type	_ZN7cvflann7anyimpl12SinglePolicyIfE6policyE, %gnu_unique_object
	.size	_ZN7cvflann7anyimpl12SinglePolicyIfE6policyE, 8
_ZN7cvflann7anyimpl12SinglePolicyIfE6policyE:
	.xword	_ZTVN7cvflann7anyimpl16small_any_policyIfEE+16
	.weak	_ZN7cvflann7anyimpl12SinglePolicyIiE6policyE
	.section	.data.rel.local._ZN7cvflann7anyimpl12SinglePolicyIiE6policyE,"awG",@progbits,_ZN7cvflann7anyimpl12SinglePolicyIiE6policyE,comdat
	.align	3
	.type	_ZN7cvflann7anyimpl12SinglePolicyIiE6policyE, %gnu_unique_object
	.size	_ZN7cvflann7anyimpl12SinglePolicyIiE6policyE, 8
_ZN7cvflann7anyimpl12SinglePolicyIiE6policyE:
	.xword	_ZTVN7cvflann7anyimpl16small_any_policyIiEE+16
	.weak	_ZN7cvflann7anyimpl12SinglePolicyIPKcE6policyE
	.section	.data.rel.local._ZN7cvflann7anyimpl12SinglePolicyIPKcE6policyE,"awG",@progbits,_ZN7cvflann7anyimpl12SinglePolicyIPKcE6policyE,comdat
	.align	3
	.type	_ZN7cvflann7anyimpl12SinglePolicyIPKcE6policyE, %gnu_unique_object
	.size	_ZN7cvflann7anyimpl12SinglePolicyIPKcE6policyE, 8
_ZN7cvflann7anyimpl12SinglePolicyIPKcE6policyE:
	.xword	_ZTVN7cvflann7anyimpl16small_any_policyIPKcEE+16
	.weak	_ZN7cvflann7anyimpl12SinglePolicyINS0_9empty_anyEE6policyE
	.section	.data.rel.local._ZN7cvflann7anyimpl12SinglePolicyINS0_9empty_anyEE6policyE,"awG",@progbits,_ZN7cvflann7anyimpl12SinglePolicyINS0_9empty_anyEE6policyE,comdat
	.align	3
	.type	_ZN7cvflann7anyimpl12SinglePolicyINS0_9empty_anyEE6policyE, %gnu_unique_object
	.size	_ZN7cvflann7anyimpl12SinglePolicyINS0_9empty_anyEE6policyE, 8
_ZN7cvflann7anyimpl12SinglePolicyINS0_9empty_anyEE6policyE:
	.xword	_ZTVN7cvflann7anyimpl14big_any_policyINS0_9empty_anyEEE+16
	.weak	_ZTSN7cvflann7anyimpl15base_any_policyE
	.section	.rodata._ZTSN7cvflann7anyimpl15base_any_policyE,"aG",@progbits,_ZTSN7cvflann7anyimpl15base_any_policyE,comdat
	.align	3
	.type	_ZTSN7cvflann7anyimpl15base_any_policyE, %object
	.size	_ZTSN7cvflann7anyimpl15base_any_policyE, 36
_ZTSN7cvflann7anyimpl15base_any_policyE:
	.string	"N7cvflann7anyimpl15base_any_policyE"
	.weak	_ZTIN7cvflann7anyimpl15base_any_policyE
	.section	.data.rel.ro._ZTIN7cvflann7anyimpl15base_any_policyE,"awG",@progbits,_ZTIN7cvflann7anyimpl15base_any_policyE,comdat
	.align	3
	.type	_ZTIN7cvflann7anyimpl15base_any_policyE, %object
	.size	_ZTIN7cvflann7anyimpl15base_any_policyE, 16
_ZTIN7cvflann7anyimpl15base_any_policyE:
	.xword	_ZTVN10__cxxabiv117__class_type_infoE+16
	.xword	_ZTSN7cvflann7anyimpl15base_any_policyE
	.weak	_ZTSN7cvflann7anyimpl21typed_base_any_policyINS_20flann_centers_init_tEEE
	.section	.rodata._ZTSN7cvflann7anyimpl21typed_base_any_policyINS_20flann_centers_init_tEEE,"aG",@progbits,_ZTSN7cvflann7anyimpl21typed_base_any_policyINS_20flann_centers_init_tEEE,comdat
	.align	3
	.type	_ZTSN7cvflann7anyimpl21typed_base_any_policyINS_20flann_centers_init_tEEE, %object
	.size	_ZTSN7cvflann7anyimpl21typed_base_any_policyINS_20flann_centers_init_tEEE, 70
_ZTSN7cvflann7anyimpl21typed_base_any_policyINS_20flann_centers_init_tEEE:
	.string	"N7cvflann7anyimpl21typed_base_any_policyINS_20flann_centers_init_tEEE"
	.weak	_ZTIN7cvflann7anyimpl21typed_base_any_policyINS_20flann_centers_init_tEEE
	.section	.data.rel.ro._ZTIN7cvflann7anyimpl21typed_base_any_policyINS_20flann_centers_init_tEEE,"awG",@progbits,_ZTIN7cvflann7anyimpl21typed_base_any_policyINS_20flann_centers_init_tEEE,comdat
	.align	3
	.type	_ZTIN7cvflann7anyimpl21typed_base_any_policyINS_20flann_centers_init_tEEE, %object
	.size	_ZTIN7cvflann7anyimpl21typed_base_any_policyINS_20flann_centers_init_tEEE, 24
_ZTIN7cvflann7anyimpl21typed_base_any_policyINS_20flann_centers_init_tEEE:
	.xword	_ZTVN10__cxxabiv120__si_class_type_infoE+16
	.xword	_ZTSN7cvflann7anyimpl21typed_base_any_policyINS_20flann_centers_init_tEEE
	.xword	_ZTIN7cvflann7anyimpl15base_any_policyE
	.weak	_ZTSN7cvflann7anyimpl14big_any_policyINS_20flann_centers_init_tEEE
	.section	.rodata._ZTSN7cvflann7anyimpl14big_any_policyINS_20flann_centers_init_tEEE,"aG",@progbits,_ZTSN7cvflann7anyimpl14big_any_policyINS_20flann_centers_init_tEEE,comdat
	.align	3
	.type	_ZTSN7cvflann7anyimpl14big_any_policyINS_20flann_centers_init_tEEE, %object
	.size	_ZTSN7cvflann7anyimpl14big_any_policyINS_20flann_centers_init_tEEE, 63
_ZTSN7cvflann7anyimpl14big_any_policyINS_20flann_centers_init_tEEE:
	.string	"N7cvflann7anyimpl14big_any_policyINS_20flann_centers_init_tEEE"
	.weak	_ZTIN7cvflann7anyimpl14big_any_policyINS_20flann_centers_init_tEEE
	.section	.data.rel.ro._ZTIN7cvflann7anyimpl14big_any_policyINS_20flann_centers_init_tEEE,"awG",@progbits,_ZTIN7cvflann7anyimpl14big_any_policyINS_20flann_centers_init_tEEE,comdat
	.align	3
	.type	_ZTIN7cvflann7anyimpl14big_any_policyINS_20flann_centers_init_tEEE, %object
	.size	_ZTIN7cvflann7anyimpl14big_any_policyINS_20flann_centers_init_tEEE, 24
_ZTIN7cvflann7anyimpl14big_any_policyINS_20flann_centers_init_tEEE:
	.xword	_ZTVN10__cxxabiv120__si_class_type_infoE+16
	.xword	_ZTSN7cvflann7anyimpl14big_any_policyINS_20flann_centers_init_tEEE
	.xword	_ZTIN7cvflann7anyimpl21typed_base_any_policyINS_20flann_centers_init_tEEE
	.weak	_ZTSN7cvflann7anyimpl21typed_base_any_policyINS_17flann_algorithm_tEEE
	.section	.rodata._ZTSN7cvflann7anyimpl21typed_base_any_policyINS_17flann_algorithm_tEEE,"aG",@progbits,_ZTSN7cvflann7anyimpl21typed_base_any_policyINS_17flann_algorithm_tEEE,comdat
	.align	3
	.type	_ZTSN7cvflann7anyimpl21typed_base_any_policyINS_17flann_algorithm_tEEE, %object
	.size	_ZTSN7cvflann7anyimpl21typed_base_any_policyINS_17flann_algorithm_tEEE, 67
_ZTSN7cvflann7anyimpl21typed_base_any_policyINS_17flann_algorithm_tEEE:
	.string	"N7cvflann7anyimpl21typed_base_any_policyINS_17flann_algorithm_tEEE"
	.weak	_ZTIN7cvflann7anyimpl21typed_base_any_policyINS_17flann_algorithm_tEEE
	.section	.data.rel.ro._ZTIN7cvflann7anyimpl21typed_base_any_policyINS_17flann_algorithm_tEEE,"awG",@progbits,_ZTIN7cvflann7anyimpl21typed_base_any_policyINS_17flann_algorithm_tEEE,comdat
	.align	3
	.type	_ZTIN7cvflann7anyimpl21typed_base_any_policyINS_17flann_algorithm_tEEE, %object
	.size	_ZTIN7cvflann7anyimpl21typed_base_any_policyINS_17flann_algorithm_tEEE, 24
_ZTIN7cvflann7anyimpl21typed_base_any_policyINS_17flann_algorithm_tEEE:
	.xword	_ZTVN10__cxxabiv120__si_class_type_infoE+16
	.xword	_ZTSN7cvflann7anyimpl21typed_base_any_policyINS_17flann_algorithm_tEEE
	.xword	_ZTIN7cvflann7anyimpl15base_any_policyE
	.weak	_ZTSN7cvflann7anyimpl14big_any_policyINS_17flann_algorithm_tEEE
	.section	.rodata._ZTSN7cvflann7anyimpl14big_any_policyINS_17flann_algorithm_tEEE,"aG",@progbits,_ZTSN7cvflann7anyimpl14big_any_policyINS_17flann_algorithm_tEEE,comdat
	.align	3
	.type	_ZTSN7cvflann7anyimpl14big_any_policyINS_17flann_algorithm_tEEE, %object
	.size	_ZTSN7cvflann7anyimpl14big_any_policyINS_17flann_algorithm_tEEE, 60
_ZTSN7cvflann7anyimpl14big_any_policyINS_17flann_algorithm_tEEE:
	.string	"N7cvflann7anyimpl14big_any_policyINS_17flann_algorithm_tEEE"
	.weak	_ZTIN7cvflann7anyimpl14big_any_policyINS_17flann_algorithm_tEEE
	.section	.data.rel.ro._ZTIN7cvflann7anyimpl14big_any_policyINS_17flann_algorithm_tEEE,"awG",@progbits,_ZTIN7cvflann7anyimpl14big_any_policyINS_17flann_algorithm_tEEE,comdat
	.align	3
	.type	_ZTIN7cvflann7anyimpl14big_any_policyINS_17flann_algorithm_tEEE, %object
	.size	_ZTIN7cvflann7anyimpl14big_any_policyINS_17flann_algorithm_tEEE, 24
_ZTIN7cvflann7anyimpl14big_any_policyINS_17flann_algorithm_tEEE:
	.xword	_ZTVN10__cxxabiv120__si_class_type_infoE+16
	.xword	_ZTSN7cvflann7anyimpl14big_any_policyINS_17flann_algorithm_tEEE
	.xword	_ZTIN7cvflann7anyimpl21typed_base_any_policyINS_17flann_algorithm_tEEE
	.weak	_ZTSN7cvflann7anyimpl21typed_base_any_policyIN2cv6StringEEE
	.section	.rodata._ZTSN7cvflann7anyimpl21typed_base_any_policyIN2cv6StringEEE,"aG",@progbits,_ZTSN7cvflann7anyimpl21typed_base_any_policyIN2cv6StringEEE,comdat
	.align	3
	.type	_ZTSN7cvflann7anyimpl21typed_base_any_policyIN2cv6StringEEE, %object
	.size	_ZTSN7cvflann7anyimpl21typed_base_any_policyIN2cv6StringEEE, 56
_ZTSN7cvflann7anyimpl21typed_base_any_policyIN2cv6StringEEE:
	.string	"N7cvflann7anyimpl21typed_base_any_policyIN2cv6StringEEE"
	.weak	_ZTIN7cvflann7anyimpl21typed_base_any_policyIN2cv6StringEEE
	.section	.data.rel.ro._ZTIN7cvflann7anyimpl21typed_base_any_policyIN2cv6StringEEE,"awG",@progbits,_ZTIN7cvflann7anyimpl21typed_base_any_policyIN2cv6StringEEE,comdat
	.align	3
	.type	_ZTIN7cvflann7anyimpl21typed_base_any_policyIN2cv6StringEEE, %object
	.size	_ZTIN7cvflann7anyimpl21typed_base_any_policyIN2cv6StringEEE, 24
_ZTIN7cvflann7anyimpl21typed_base_any_policyIN2cv6StringEEE:
	.xword	_ZTVN10__cxxabiv120__si_class_type_infoE+16
	.xword	_ZTSN7cvflann7anyimpl21typed_base_any_policyIN2cv6StringEEE
	.xword	_ZTIN7cvflann7anyimpl15base_any_policyE
	.weak	_ZTSN7cvflann7anyimpl14big_any_policyIN2cv6StringEEE
	.section	.rodata._ZTSN7cvflann7anyimpl14big_any_policyIN2cv6StringEEE,"aG",@progbits,_ZTSN7cvflann7anyimpl14big_any_policyIN2cv6StringEEE,comdat
	.align	3
	.type	_ZTSN7cvflann7anyimpl14big_any_policyIN2cv6StringEEE, %object
	.size	_ZTSN7cvflann7anyimpl14big_any_policyIN2cv6StringEEE, 49
_ZTSN7cvflann7anyimpl14big_any_policyIN2cv6StringEEE:
	.string	"N7cvflann7anyimpl14big_any_policyIN2cv6StringEEE"
	.weak	_ZTIN7cvflann7anyimpl14big_any_policyIN2cv6StringEEE
	.section	.data.rel.ro._ZTIN7cvflann7anyimpl14big_any_policyIN2cv6StringEEE,"awG",@progbits,_ZTIN7cvflann7anyimpl14big_any_policyIN2cv6StringEEE,comdat
	.align	3
	.type	_ZTIN7cvflann7anyimpl14big_any_policyIN2cv6StringEEE, %object
	.size	_ZTIN7cvflann7anyimpl14big_any_policyIN2cv6StringEEE, 24
_ZTIN7cvflann7anyimpl14big_any_policyIN2cv6StringEEE:
	.xword	_ZTVN10__cxxabiv120__si_class_type_infoE+16
	.xword	_ZTSN7cvflann7anyimpl14big_any_policyIN2cv6StringEEE
	.xword	_ZTIN7cvflann7anyimpl21typed_base_any_policyIN2cv6StringEEE
	.weak	_ZTSN7cvflann7anyimpl21typed_base_any_policyINS0_9empty_anyEEE
	.section	.rodata._ZTSN7cvflann7anyimpl21typed_base_any_policyINS0_9empty_anyEEE,"aG",@progbits,_ZTSN7cvflann7anyimpl21typed_base_any_policyINS0_9empty_anyEEE,comdat
	.align	3
	.type	_ZTSN7cvflann7anyimpl21typed_base_any_policyINS0_9empty_anyEEE, %object
	.size	_ZTSN7cvflann7anyimpl21typed_base_any_policyINS0_9empty_anyEEE, 59
_ZTSN7cvflann7anyimpl21typed_base_any_policyINS0_9empty_anyEEE:
	.string	"N7cvflann7anyimpl21typed_base_any_policyINS0_9empty_anyEEE"
	.weak	_ZTIN7cvflann7anyimpl21typed_base_any_policyINS0_9empty_anyEEE
	.section	.data.rel.ro._ZTIN7cvflann7anyimpl21typed_base_any_policyINS0_9empty_anyEEE,"awG",@progbits,_ZTIN7cvflann7anyimpl21typed_base_any_policyINS0_9empty_anyEEE,comdat
	.align	3
	.type	_ZTIN7cvflann7anyimpl21typed_base_any_policyINS0_9empty_anyEEE, %object
	.size	_ZTIN7cvflann7anyimpl21typed_base_any_policyINS0_9empty_anyEEE, 24
_ZTIN7cvflann7anyimpl21typed_base_any_policyINS0_9empty_anyEEE:
	.xword	_ZTVN10__cxxabiv120__si_class_type_infoE+16
	.xword	_ZTSN7cvflann7anyimpl21typed_base_any_policyINS0_9empty_anyEEE
	.xword	_ZTIN7cvflann7anyimpl15base_any_policyE
	.weak	_ZTSN7cvflann7anyimpl14big_any_policyINS0_9empty_anyEEE
	.section	.rodata._ZTSN7cvflann7anyimpl14big_any_policyINS0_9empty_anyEEE,"aG",@progbits,_ZTSN7cvflann7anyimpl14big_any_policyINS0_9empty_anyEEE,comdat
	.align	3
	.type	_ZTSN7cvflann7anyimpl14big_any_policyINS0_9empty_anyEEE, %object
	.size	_ZTSN7cvflann7anyimpl14big_any_policyINS0_9empty_anyEEE, 52
_ZTSN7cvflann7anyimpl14big_any_policyINS0_9empty_anyEEE:
	.string	"N7cvflann7anyimpl14big_any_policyINS0_9empty_anyEEE"
	.weak	_ZTIN7cvflann7anyimpl14big_any_policyINS0_9empty_anyEEE
	.section	.data.rel.ro._ZTIN7cvflann7anyimpl14big_any_policyINS0_9empty_anyEEE,"awG",@progbits,_ZTIN7cvflann7anyimpl14big_any_policyINS0_9empty_anyEEE,comdat
	.align	3
	.type	_ZTIN7cvflann7anyimpl14big_any_policyINS0_9empty_anyEEE, %object
	.size	_ZTIN7cvflann7anyimpl14big_any_policyINS0_9empty_anyEEE, 24
_ZTIN7cvflann7anyimpl14big_any_policyINS0_9empty_anyEEE:
	.xword	_ZTVN10__cxxabiv120__si_class_type_infoE+16
	.xword	_ZTSN7cvflann7anyimpl14big_any_policyINS0_9empty_anyEEE
	.xword	_ZTIN7cvflann7anyimpl21typed_base_any_policyINS0_9empty_anyEEE
	.weak	_ZTSN7cvflann7anyimpl9empty_anyE
	.section	.rodata._ZTSN7cvflann7anyimpl9empty_anyE,"aG",@progbits,_ZTSN7cvflann7anyimpl9empty_anyE,comdat
	.align	3
	.type	_ZTSN7cvflann7anyimpl9empty_anyE, %object
	.size	_ZTSN7cvflann7anyimpl9empty_anyE, 29
_ZTSN7cvflann7anyimpl9empty_anyE:
	.string	"N7cvflann7anyimpl9empty_anyE"
	.weak	_ZTIN7cvflann7anyimpl9empty_anyE
	.section	.data.rel.ro._ZTIN7cvflann7anyimpl9empty_anyE,"awG",@progbits,_ZTIN7cvflann7anyimpl9empty_anyE,comdat
	.align	3
	.type	_ZTIN7cvflann7anyimpl9empty_anyE, %object
	.size	_ZTIN7cvflann7anyimpl9empty_anyE, 16
_ZTIN7cvflann7anyimpl9empty_anyE:
	.xword	_ZTVN10__cxxabiv117__class_type_infoE+16
	.xword	_ZTSN7cvflann7anyimpl9empty_anyE
	.weak	_ZTSN7cvflann7anyimpl21typed_base_any_policyIPKcEE
	.section	.rodata._ZTSN7cvflann7anyimpl21typed_base_any_policyIPKcEE,"aG",@progbits,_ZTSN7cvflann7anyimpl21typed_base_any_policyIPKcEE,comdat
	.align	3
	.type	_ZTSN7cvflann7anyimpl21typed_base_any_policyIPKcEE, %object
	.size	_ZTSN7cvflann7anyimpl21typed_base_any_policyIPKcEE, 47
_ZTSN7cvflann7anyimpl21typed_base_any_policyIPKcEE:
	.string	"N7cvflann7anyimpl21typed_base_any_policyIPKcEE"
	.weak	_ZTIN7cvflann7anyimpl21typed_base_any_policyIPKcEE
	.section	.data.rel.ro._ZTIN7cvflann7anyimpl21typed_base_any_policyIPKcEE,"awG",@progbits,_ZTIN7cvflann7anyimpl21typed_base_any_policyIPKcEE,comdat
	.align	3
	.type	_ZTIN7cvflann7anyimpl21typed_base_any_policyIPKcEE, %object
	.size	_ZTIN7cvflann7anyimpl21typed_base_any_policyIPKcEE, 24
_ZTIN7cvflann7anyimpl21typed_base_any_policyIPKcEE:
	.xword	_ZTVN10__cxxabiv120__si_class_type_infoE+16
	.xword	_ZTSN7cvflann7anyimpl21typed_base_any_policyIPKcEE
	.xword	_ZTIN7cvflann7anyimpl15base_any_policyE
	.weak	_ZTSN7cvflann7anyimpl16small_any_policyIPKcEE
	.section	.rodata._ZTSN7cvflann7anyimpl16small_any_policyIPKcEE,"aG",@progbits,_ZTSN7cvflann7anyimpl16small_any_policyIPKcEE,comdat
	.align	3
	.type	_ZTSN7cvflann7anyimpl16small_any_policyIPKcEE, %object
	.size	_ZTSN7cvflann7anyimpl16small_any_policyIPKcEE, 42
_ZTSN7cvflann7anyimpl16small_any_policyIPKcEE:
	.string	"N7cvflann7anyimpl16small_any_policyIPKcEE"
	.weak	_ZTIN7cvflann7anyimpl16small_any_policyIPKcEE
	.section	.data.rel.ro._ZTIN7cvflann7anyimpl16small_any_policyIPKcEE,"awG",@progbits,_ZTIN7cvflann7anyimpl16small_any_policyIPKcEE,comdat
	.align	3
	.type	_ZTIN7cvflann7anyimpl16small_any_policyIPKcEE, %object
	.size	_ZTIN7cvflann7anyimpl16small_any_policyIPKcEE, 24
_ZTIN7cvflann7anyimpl16small_any_policyIPKcEE:
	.xword	_ZTVN10__cxxabiv120__si_class_type_infoE+16
	.xword	_ZTSN7cvflann7anyimpl16small_any_policyIPKcEE
	.xword	_ZTIN7cvflann7anyimpl21typed_base_any_policyIPKcEE
	.weak	_ZTSN7cvflann7anyimpl21typed_base_any_policyIiEE
	.section	.rodata._ZTSN7cvflann7anyimpl21typed_base_any_policyIiEE,"aG",@progbits,_ZTSN7cvflann7anyimpl21typed_base_any_policyIiEE,comdat
	.align	3
	.type	_ZTSN7cvflann7anyimpl21typed_base_any_policyIiEE, %object
	.size	_ZTSN7cvflann7anyimpl21typed_base_any_policyIiEE, 45
_ZTSN7cvflann7anyimpl21typed_base_any_policyIiEE:
	.string	"N7cvflann7anyimpl21typed_base_any_policyIiEE"
	.weak	_ZTIN7cvflann7anyimpl21typed_base_any_policyIiEE
	.section	.data.rel.ro._ZTIN7cvflann7anyimpl21typed_base_any_policyIiEE,"awG",@progbits,_ZTIN7cvflann7anyimpl21typed_base_any_policyIiEE,comdat
	.align	3
	.type	_ZTIN7cvflann7anyimpl21typed_base_any_policyIiEE, %object
	.size	_ZTIN7cvflann7anyimpl21typed_base_any_policyIiEE, 24
_ZTIN7cvflann7anyimpl21typed_base_any_policyIiEE:
	.xword	_ZTVN10__cxxabiv120__si_class_type_infoE+16
	.xword	_ZTSN7cvflann7anyimpl21typed_base_any_policyIiEE
	.xword	_ZTIN7cvflann7anyimpl15base_any_policyE
	.weak	_ZTSN7cvflann7anyimpl16small_any_policyIiEE
	.section	.rodata._ZTSN7cvflann7anyimpl16small_any_policyIiEE,"aG",@progbits,_ZTSN7cvflann7anyimpl16small_any_policyIiEE,comdat
	.align	3
	.type	_ZTSN7cvflann7anyimpl16small_any_policyIiEE, %object
	.size	_ZTSN7cvflann7anyimpl16small_any_policyIiEE, 40
_ZTSN7cvflann7anyimpl16small_any_policyIiEE:
	.string	"N7cvflann7anyimpl16small_any_policyIiEE"
	.weak	_ZTIN7cvflann7anyimpl16small_any_policyIiEE
	.section	.data.rel.ro._ZTIN7cvflann7anyimpl16small_any_policyIiEE,"awG",@progbits,_ZTIN7cvflann7anyimpl16small_any_policyIiEE,comdat
	.align	3
	.type	_ZTIN7cvflann7anyimpl16small_any_policyIiEE, %object
	.size	_ZTIN7cvflann7anyimpl16small_any_policyIiEE, 24
_ZTIN7cvflann7anyimpl16small_any_policyIiEE:
	.xword	_ZTVN10__cxxabiv120__si_class_type_infoE+16
	.xword	_ZTSN7cvflann7anyimpl16small_any_policyIiEE
	.xword	_ZTIN7cvflann7anyimpl21typed_base_any_policyIiEE
	.weak	_ZTSN7cvflann7anyimpl21typed_base_any_policyIfEE
	.section	.rodata._ZTSN7cvflann7anyimpl21typed_base_any_policyIfEE,"aG",@progbits,_ZTSN7cvflann7anyimpl21typed_base_any_policyIfEE,comdat
	.align	3
	.type	_ZTSN7cvflann7anyimpl21typed_base_any_policyIfEE, %object
	.size	_ZTSN7cvflann7anyimpl21typed_base_any_policyIfEE, 45
_ZTSN7cvflann7anyimpl21typed_base_any_policyIfEE:
	.string	"N7cvflann7anyimpl21typed_base_any_policyIfEE"
	.weak	_ZTIN7cvflann7anyimpl21typed_base_any_policyIfEE
	.section	.data.rel.ro._ZTIN7cvflann7anyimpl21typed_base_any_policyIfEE,"awG",@progbits,_ZTIN7cvflann7anyimpl21typed_base_any_policyIfEE,comdat
	.align	3
	.type	_ZTIN7cvflann7anyimpl21typed_base_any_policyIfEE, %object
	.size	_ZTIN7cvflann7anyimpl21typed_base_any_policyIfEE, 24
_ZTIN7cvflann7anyimpl21typed_base_any_policyIfEE:
	.xword	_ZTVN10__cxxabiv120__si_class_type_infoE+16
	.xword	_ZTSN7cvflann7anyimpl21typed_base_any_policyIfEE
	.xword	_ZTIN7cvflann7anyimpl15base_any_policyE
	.weak	_ZTSN7cvflann7anyimpl16small_any_policyIfEE
	.section	.rodata._ZTSN7cvflann7anyimpl16small_any_policyIfEE,"aG",@progbits,_ZTSN7cvflann7anyimpl16small_any_policyIfEE,comdat
	.align	3
	.type	_ZTSN7cvflann7anyimpl16small_any_policyIfEE, %object
	.size	_ZTSN7cvflann7anyimpl16small_any_policyIfEE, 40
_ZTSN7cvflann7anyimpl16small_any_policyIfEE:
	.string	"N7cvflann7anyimpl16small_any_policyIfEE"
	.weak	_ZTIN7cvflann7anyimpl16small_any_policyIfEE
	.section	.data.rel.ro._ZTIN7cvflann7anyimpl16small_any_policyIfEE,"awG",@progbits,_ZTIN7cvflann7anyimpl16small_any_policyIfEE,comdat
	.align	3
	.type	_ZTIN7cvflann7anyimpl16small_any_policyIfEE, %object
	.size	_ZTIN7cvflann7anyimpl16small_any_policyIfEE, 24
_ZTIN7cvflann7anyimpl16small_any_policyIfEE:
	.xword	_ZTVN10__cxxabiv120__si_class_type_infoE+16
	.xword	_ZTSN7cvflann7anyimpl16small_any_policyIfEE
	.xword	_ZTIN7cvflann7anyimpl21typed_base_any_policyIfEE
	.weak	_ZTSN7cvflann7anyimpl21typed_base_any_policyIbEE
	.section	.rodata._ZTSN7cvflann7anyimpl21typed_base_any_policyIbEE,"aG",@progbits,_ZTSN7cvflann7anyimpl21typed_base_any_policyIbEE,comdat
	.align	3
	.type	_ZTSN7cvflann7anyimpl21typed_base_any_policyIbEE, %object
	.size	_ZTSN7cvflann7anyimpl21typed_base_any_policyIbEE, 45
_ZTSN7cvflann7anyimpl21typed_base_any_policyIbEE:
	.string	"N7cvflann7anyimpl21typed_base_any_policyIbEE"
	.weak	_ZTIN7cvflann7anyimpl21typed_base_any_policyIbEE
	.section	.data.rel.ro._ZTIN7cvflann7anyimpl21typed_base_any_policyIbEE,"awG",@progbits,_ZTIN7cvflann7anyimpl21typed_base_any_policyIbEE,comdat
	.align	3
	.type	_ZTIN7cvflann7anyimpl21typed_base_any_policyIbEE, %object
	.size	_ZTIN7cvflann7anyimpl21typed_base_any_policyIbEE, 24
_ZTIN7cvflann7anyimpl21typed_base_any_policyIbEE:
	.xword	_ZTVN10__cxxabiv120__si_class_type_infoE+16
	.xword	_ZTSN7cvflann7anyimpl21typed_base_any_policyIbEE
	.xword	_ZTIN7cvflann7anyimpl15base_any_policyE
	.weak	_ZTSN7cvflann7anyimpl16small_any_policyIbEE
	.section	.rodata._ZTSN7cvflann7anyimpl16small_any_policyIbEE,"aG",@progbits,_ZTSN7cvflann7anyimpl16small_any_policyIbEE,comdat
	.align	3
	.type	_ZTSN7cvflann7anyimpl16small_any_policyIbEE, %object
	.size	_ZTSN7cvflann7anyimpl16small_any_policyIbEE, 40
_ZTSN7cvflann7anyimpl16small_any_policyIbEE:
	.string	"N7cvflann7anyimpl16small_any_policyIbEE"
	.weak	_ZTIN7cvflann7anyimpl16small_any_policyIbEE
	.section	.data.rel.ro._ZTIN7cvflann7anyimpl16small_any_policyIbEE,"awG",@progbits,_ZTIN7cvflann7anyimpl16small_any_policyIbEE,comdat
	.align	3
	.type	_ZTIN7cvflann7anyimpl16small_any_policyIbEE, %object
	.size	_ZTIN7cvflann7anyimpl16small_any_policyIbEE, 24
_ZTIN7cvflann7anyimpl16small_any_policyIbEE:
	.xword	_ZTVN10__cxxabiv120__si_class_type_infoE+16
	.xword	_ZTSN7cvflann7anyimpl16small_any_policyIbEE
	.xword	_ZTIN7cvflann7anyimpl21typed_base_any_policyIbEE
	.weak	_ZTSN7cvflann7anyimpl21typed_base_any_policyIjEE
	.section	.rodata._ZTSN7cvflann7anyimpl21typed_base_any_policyIjEE,"aG",@progbits,_ZTSN7cvflann7anyimpl21typed_base_any_policyIjEE,comdat
	.align	3
	.type	_ZTSN7cvflann7anyimpl21typed_base_any_policyIjEE, %object
	.size	_ZTSN7cvflann7anyimpl21typed_base_any_policyIjEE, 45
_ZTSN7cvflann7anyimpl21typed_base_any_policyIjEE:
	.string	"N7cvflann7anyimpl21typed_base_any_policyIjEE"
	.weak	_ZTIN7cvflann7anyimpl21typed_base_any_policyIjEE
	.section	.data.rel.ro._ZTIN7cvflann7anyimpl21typed_base_any_policyIjEE,"awG",@progbits,_ZTIN7cvflann7anyimpl21typed_base_any_policyIjEE,comdat
	.align	3
	.type	_ZTIN7cvflann7anyimpl21typed_base_any_policyIjEE, %object
	.size	_ZTIN7cvflann7anyimpl21typed_base_any_policyIjEE, 24
_ZTIN7cvflann7anyimpl21typed_base_any_policyIjEE:
	.xword	_ZTVN10__cxxabiv120__si_class_type_infoE+16
	.xword	_ZTSN7cvflann7anyimpl21typed_base_any_policyIjEE
	.xword	_ZTIN7cvflann7anyimpl15base_any_policyE
	.weak	_ZTSN7cvflann7anyimpl16small_any_policyIjEE
	.section	.rodata._ZTSN7cvflann7anyimpl16small_any_policyIjEE,"aG",@progbits,_ZTSN7cvflann7anyimpl16small_any_policyIjEE,comdat
	.align	3
	.type	_ZTSN7cvflann7anyimpl16small_any_policyIjEE, %object
	.size	_ZTSN7cvflann7anyimpl16small_any_policyIjEE, 40
_ZTSN7cvflann7anyimpl16small_any_policyIjEE:
	.string	"N7cvflann7anyimpl16small_any_policyIjEE"
	.weak	_ZTIN7cvflann7anyimpl16small_any_policyIjEE
	.section	.data.rel.ro._ZTIN7cvflann7anyimpl16small_any_policyIjEE,"awG",@progbits,_ZTIN7cvflann7anyimpl16small_any_policyIjEE,comdat
	.align	3
	.type	_ZTIN7cvflann7anyimpl16small_any_policyIjEE, %object
	.size	_ZTIN7cvflann7anyimpl16small_any_policyIjEE, 24
_ZTIN7cvflann7anyimpl16small_any_policyIjEE:
	.xword	_ZTVN10__cxxabiv120__si_class_type_infoE+16
	.xword	_ZTSN7cvflann7anyimpl16small_any_policyIjEE
	.xword	_ZTIN7cvflann7anyimpl21typed_base_any_policyIjEE
	.weak	_ZTVN7cvflann7anyimpl14big_any_policyINS_20flann_centers_init_tEEE
	.section	.data.rel.ro.local._ZTVN7cvflann7anyimpl14big_any_policyINS_20flann_centers_init_tEEE,"awG",@progbits,_ZTVN7cvflann7anyimpl14big_any_policyINS_20flann_centers_init_tEEE,comdat
	.align	3
	.type	_ZTVN7cvflann7anyimpl14big_any_policyINS_20flann_centers_init_tEEE, %object
	.size	_ZTVN7cvflann7anyimpl14big_any_policyINS_20flann_centers_init_tEEE, 104
_ZTVN7cvflann7anyimpl14big_any_policyINS_20flann_centers_init_tEEE:
	.xword	0
	.xword	_ZTIN7cvflann7anyimpl14big_any_policyINS_20flann_centers_init_tEEE
	.xword	_ZN7cvflann7anyimpl14big_any_policyINS_20flann_centers_init_tEE13static_deleteEPPv
	.xword	_ZN7cvflann7anyimpl14big_any_policyINS_20flann_centers_init_tEE15copy_from_valueEPKvPPv
	.xword	_ZN7cvflann7anyimpl14big_any_policyINS_20flann_centers_init_tEE5cloneEPKPvPS4_
	.xword	_ZN7cvflann7anyimpl14big_any_policyINS_20flann_centers_init_tEE4moveEPKPvPS4_
	.xword	_ZN7cvflann7anyimpl14big_any_policyINS_20flann_centers_init_tEE9get_valueEPPv
	.xword	_ZN7cvflann7anyimpl14big_any_policyINS_20flann_centers_init_tEE9get_valueEPKPv
	.xword	_ZN7cvflann7anyimpl21typed_base_any_policyINS_20flann_centers_init_tEE8get_sizeEv
	.xword	_ZN7cvflann7anyimpl21typed_base_any_policyINS_20flann_centers_init_tEE4typeEv
	.xword	_ZN7cvflann7anyimpl14big_any_policyINS_20flann_centers_init_tEE5printERSoPKPv
	.xword	_ZN7cvflann7anyimpl14big_any_policyINS_20flann_centers_init_tEED1Ev
	.xword	_ZN7cvflann7anyimpl14big_any_policyINS_20flann_centers_init_tEED0Ev
	.weak	_ZTVN7cvflann7anyimpl14big_any_policyINS_17flann_algorithm_tEEE
	.section	.data.rel.ro.local._ZTVN7cvflann7anyimpl14big_any_policyINS_17flann_algorithm_tEEE,"awG",@progbits,_ZTVN7cvflann7anyimpl14big_any_policyINS_17flann_algorithm_tEEE,comdat
	.align	3
	.type	_ZTVN7cvflann7anyimpl14big_any_policyINS_17flann_algorithm_tEEE, %object
	.size	_ZTVN7cvflann7anyimpl14big_any_policyINS_17flann_algorithm_tEEE, 104
_ZTVN7cvflann7anyimpl14big_any_policyINS_17flann_algorithm_tEEE:
	.xword	0
	.xword	_ZTIN7cvflann7anyimpl14big_any_policyINS_17flann_algorithm_tEEE
	.xword	_ZN7cvflann7anyimpl14big_any_policyINS_17flann_algorithm_tEE13static_deleteEPPv
	.xword	_ZN7cvflann7anyimpl14big_any_policyINS_17flann_algorithm_tEE15copy_from_valueEPKvPPv
	.xword	_ZN7cvflann7anyimpl14big_any_policyINS_17flann_algorithm_tEE5cloneEPKPvPS4_
	.xword	_ZN7cvflann7anyimpl14big_any_policyINS_17flann_algorithm_tEE4moveEPKPvPS4_
	.xword	_ZN7cvflann7anyimpl14big_any_policyINS_17flann_algorithm_tEE9get_valueEPPv
	.xword	_ZN7cvflann7anyimpl14big_any_policyINS_17flann_algorithm_tEE9get_valueEPKPv
	.xword	_ZN7cvflann7anyimpl21typed_base_any_policyINS_17flann_algorithm_tEE8get_sizeEv
	.xword	_ZN7cvflann7anyimpl21typed_base_any_policyINS_17flann_algorithm_tEE4typeEv
	.xword	_ZN7cvflann7anyimpl14big_any_policyINS_17flann_algorithm_tEE5printERSoPKPv
	.xword	_ZN7cvflann7anyimpl14big_any_policyINS_17flann_algorithm_tEED1Ev
	.xword	_ZN7cvflann7anyimpl14big_any_policyINS_17flann_algorithm_tEED0Ev
	.weak	_ZTVN7cvflann7anyimpl14big_any_policyIN2cv6StringEEE
	.section	.data.rel.ro.local._ZTVN7cvflann7anyimpl14big_any_policyIN2cv6StringEEE,"awG",@progbits,_ZTVN7cvflann7anyimpl14big_any_policyIN2cv6StringEEE,comdat
	.align	3
	.type	_ZTVN7cvflann7anyimpl14big_any_policyIN2cv6StringEEE, %object
	.size	_ZTVN7cvflann7anyimpl14big_any_policyIN2cv6StringEEE, 104
_ZTVN7cvflann7anyimpl14big_any_policyIN2cv6StringEEE:
	.xword	0
	.xword	_ZTIN7cvflann7anyimpl14big_any_policyIN2cv6StringEEE
	.xword	_ZN7cvflann7anyimpl14big_any_policyIN2cv6StringEE13static_deleteEPPv
	.xword	_ZN7cvflann7anyimpl14big_any_policyIN2cv6StringEE15copy_from_valueEPKvPPv
	.xword	_ZN7cvflann7anyimpl14big_any_policyIN2cv6StringEE5cloneEPKPvPS5_
	.xword	_ZN7cvflann7anyimpl14big_any_policyIN2cv6StringEE4moveEPKPvPS5_
	.xword	_ZN7cvflann7anyimpl14big_any_policyIN2cv6StringEE9get_valueEPPv
	.xword	_ZN7cvflann7anyimpl14big_any_policyIN2cv6StringEE9get_valueEPKPv
	.xword	_ZN7cvflann7anyimpl21typed_base_any_policyIN2cv6StringEE8get_sizeEv
	.xword	_ZN7cvflann7anyimpl21typed_base_any_policyIN2cv6StringEE4typeEv
	.xword	_ZN7cvflann7anyimpl14big_any_policyIN2cv6StringEE5printERSoPKPv
	.xword	_ZN7cvflann7anyimpl14big_any_policyIN2cv6StringEED1Ev
	.xword	_ZN7cvflann7anyimpl14big_any_policyIN2cv6StringEED0Ev
	.weak	_ZTVN7cvflann7anyimpl14big_any_policyINS0_9empty_anyEEE
	.section	.data.rel.ro.local._ZTVN7cvflann7anyimpl14big_any_policyINS0_9empty_anyEEE,"awG",@progbits,_ZTVN7cvflann7anyimpl14big_any_policyINS0_9empty_anyEEE,comdat
	.align	3
	.type	_ZTVN7cvflann7anyimpl14big_any_policyINS0_9empty_anyEEE, %object
	.size	_ZTVN7cvflann7anyimpl14big_any_policyINS0_9empty_anyEEE, 104
_ZTVN7cvflann7anyimpl14big_any_policyINS0_9empty_anyEEE:
	.xword	0
	.xword	_ZTIN7cvflann7anyimpl14big_any_policyINS0_9empty_anyEEE
	.xword	_ZN7cvflann7anyimpl14big_any_policyINS0_9empty_anyEE13static_deleteEPPv
	.xword	_ZN7cvflann7anyimpl14big_any_policyINS0_9empty_anyEE15copy_from_valueEPKvPPv
	.xword	_ZN7cvflann7anyimpl14big_any_policyINS0_9empty_anyEE5cloneEPKPvPS4_
	.xword	_ZN7cvflann7anyimpl14big_any_policyINS0_9empty_anyEE4moveEPKPvPS4_
	.xword	_ZN7cvflann7anyimpl14big_any_policyINS0_9empty_anyEE9get_valueEPPv
	.xword	_ZN7cvflann7anyimpl14big_any_policyINS0_9empty_anyEE9get_valueEPKPv
	.xword	_ZN7cvflann7anyimpl21typed_base_any_policyINS0_9empty_anyEE8get_sizeEv
	.xword	_ZN7cvflann7anyimpl21typed_base_any_policyINS0_9empty_anyEE4typeEv
	.xword	_ZN7cvflann7anyimpl14big_any_policyINS0_9empty_anyEE5printERSoPKPv
	.xword	_ZN7cvflann7anyimpl14big_any_policyINS0_9empty_anyEED1Ev
	.xword	_ZN7cvflann7anyimpl14big_any_policyINS0_9empty_anyEED0Ev
	.weak	_ZTVN7cvflann7anyimpl16small_any_policyIPKcEE
	.section	.data.rel.ro.local._ZTVN7cvflann7anyimpl16small_any_policyIPKcEE,"awG",@progbits,_ZTVN7cvflann7anyimpl16small_any_policyIPKcEE,comdat
	.align	3
	.type	_ZTVN7cvflann7anyimpl16small_any_policyIPKcEE, %object
	.size	_ZTVN7cvflann7anyimpl16small_any_policyIPKcEE, 104
_ZTVN7cvflann7anyimpl16small_any_policyIPKcEE:
	.xword	0
	.xword	_ZTIN7cvflann7anyimpl16small_any_policyIPKcEE
	.xword	_ZN7cvflann7anyimpl16small_any_policyIPKcE13static_deleteEPPv
	.xword	_ZN7cvflann7anyimpl16small_any_policyIPKcE15copy_from_valueEPKvPPv
	.xword	_ZN7cvflann7anyimpl16small_any_policyIPKcE5cloneEPKPvPS5_
	.xword	_ZN7cvflann7anyimpl16small_any_policyIPKcE4moveEPKPvPS5_
	.xword	_ZN7cvflann7anyimpl16small_any_policyIPKcE9get_valueEPPv
	.xword	_ZN7cvflann7anyimpl16small_any_policyIPKcE9get_valueEPKPv
	.xword	_ZN7cvflann7anyimpl21typed_base_any_policyIPKcE8get_sizeEv
	.xword	_ZN7cvflann7anyimpl21typed_base_any_policyIPKcE4typeEv
	.xword	_ZN7cvflann7anyimpl16small_any_policyIPKcE5printERSoPKPv
	.xword	_ZN7cvflann7anyimpl16small_any_policyIPKcED1Ev
	.xword	_ZN7cvflann7anyimpl16small_any_policyIPKcED0Ev
	.weak	_ZTVN7cvflann7anyimpl16small_any_policyIiEE
	.section	.data.rel.ro.local._ZTVN7cvflann7anyimpl16small_any_policyIiEE,"awG",@progbits,_ZTVN7cvflann7anyimpl16small_any_policyIiEE,comdat
	.align	3
	.type	_ZTVN7cvflann7anyimpl16small_any_policyIiEE, %object
	.size	_ZTVN7cvflann7anyimpl16small_any_policyIiEE, 104
_ZTVN7cvflann7anyimpl16small_any_policyIiEE:
	.xword	0
	.xword	_ZTIN7cvflann7anyimpl16small_any_policyIiEE
	.xword	_ZN7cvflann7anyimpl16small_any_policyIiE13static_deleteEPPv
	.xword	_ZN7cvflann7anyimpl16small_any_policyIiE15copy_from_valueEPKvPPv
	.xword	_ZN7cvflann7anyimpl16small_any_policyIiE5cloneEPKPvPS3_
	.xword	_ZN7cvflann7anyimpl16small_any_policyIiE4moveEPKPvPS3_
	.xword	_ZN7cvflann7anyimpl16small_any_policyIiE9get_valueEPPv
	.xword	_ZN7cvflann7anyimpl16small_any_policyIiE9get_valueEPKPv
	.xword	_ZN7cvflann7anyimpl21typed_base_any_policyIiE8get_sizeEv
	.xword	_ZN7cvflann7anyimpl21typed_base_any_policyIiE4typeEv
	.xword	_ZN7cvflann7anyimpl16small_any_policyIiE5printERSoPKPv
	.xword	_ZN7cvflann7anyimpl16small_any_policyIiED1Ev
	.xword	_ZN7cvflann7anyimpl16small_any_policyIiED0Ev
	.weak	_ZTVN7cvflann7anyimpl16small_any_policyIfEE
	.section	.data.rel.ro.local._ZTVN7cvflann7anyimpl16small_any_policyIfEE,"awG",@progbits,_ZTVN7cvflann7anyimpl16small_any_policyIfEE,comdat
	.align	3
	.type	_ZTVN7cvflann7anyimpl16small_any_policyIfEE, %object
	.size	_ZTVN7cvflann7anyimpl16small_any_policyIfEE, 104
_ZTVN7cvflann7anyimpl16small_any_policyIfEE:
	.xword	0
	.xword	_ZTIN7cvflann7anyimpl16small_any_policyIfEE
	.xword	_ZN7cvflann7anyimpl16small_any_policyIfE13static_deleteEPPv
	.xword	_ZN7cvflann7anyimpl16small_any_policyIfE15copy_from_valueEPKvPPv
	.xword	_ZN7cvflann7anyimpl16small_any_policyIfE5cloneEPKPvPS3_
	.xword	_ZN7cvflann7anyimpl16small_any_policyIfE4moveEPKPvPS3_
	.xword	_ZN7cvflann7anyimpl16small_any_policyIfE9get_valueEPPv
	.xword	_ZN7cvflann7anyimpl16small_any_policyIfE9get_valueEPKPv
	.xword	_ZN7cvflann7anyimpl21typed_base_any_policyIfE8get_sizeEv
	.xword	_ZN7cvflann7anyimpl21typed_base_any_policyIfE4typeEv
	.xword	_ZN7cvflann7anyimpl16small_any_policyIfE5printERSoPKPv
	.xword	_ZN7cvflann7anyimpl16small_any_policyIfED1Ev
	.xword	_ZN7cvflann7anyimpl16small_any_policyIfED0Ev
	.weak	_ZTVN7cvflann7anyimpl16small_any_policyIbEE
	.section	.data.rel.ro.local._ZTVN7cvflann7anyimpl16small_any_policyIbEE,"awG",@progbits,_ZTVN7cvflann7anyimpl16small_any_policyIbEE,comdat
	.align	3
	.type	_ZTVN7cvflann7anyimpl16small_any_policyIbEE, %object
	.size	_ZTVN7cvflann7anyimpl16small_any_policyIbEE, 104
_ZTVN7cvflann7anyimpl16small_any_policyIbEE:
	.xword	0
	.xword	_ZTIN7cvflann7anyimpl16small_any_policyIbEE
	.xword	_ZN7cvflann7anyimpl16small_any_policyIbE13static_deleteEPPv
	.xword	_ZN7cvflann7anyimpl16small_any_policyIbE15copy_from_valueEPKvPPv
	.xword	_ZN7cvflann7anyimpl16small_any_policyIbE5cloneEPKPvPS3_
	.xword	_ZN7cvflann7anyimpl16small_any_policyIbE4moveEPKPvPS3_
	.xword	_ZN7cvflann7anyimpl16small_any_policyIbE9get_valueEPPv
	.xword	_ZN7cvflann7anyimpl16small_any_policyIbE9get_valueEPKPv
	.xword	_ZN7cvflann7anyimpl21typed_base_any_policyIbE8get_sizeEv
	.xword	_ZN7cvflann7anyimpl21typed_base_any_policyIbE4typeEv
	.xword	_ZN7cvflann7anyimpl16small_any_policyIbE5printERSoPKPv
	.xword	_ZN7cvflann7anyimpl16small_any_policyIbED1Ev
	.xword	_ZN7cvflann7anyimpl16small_any_policyIbED0Ev
	.weak	_ZTVN7cvflann7anyimpl16small_any_policyIjEE
	.section	.data.rel.ro.local._ZTVN7cvflann7anyimpl16small_any_policyIjEE,"awG",@progbits,_ZTVN7cvflann7anyimpl16small_any_policyIjEE,comdat
	.align	3
	.type	_ZTVN7cvflann7anyimpl16small_any_policyIjEE, %object
	.size	_ZTVN7cvflann7anyimpl16small_any_policyIjEE, 104
_ZTVN7cvflann7anyimpl16small_any_policyIjEE:
	.xword	0
	.xword	_ZTIN7cvflann7anyimpl16small_any_policyIjEE
	.xword	_ZN7cvflann7anyimpl16small_any_policyIjE13static_deleteEPPv
	.xword	_ZN7cvflann7anyimpl16small_any_policyIjE15copy_from_valueEPKvPPv
	.xword	_ZN7cvflann7anyimpl16small_any_policyIjE5cloneEPKPvPS3_
	.xword	_ZN7cvflann7anyimpl16small_any_policyIjE4moveEPKPvPS3_
	.xword	_ZN7cvflann7anyimpl16small_any_policyIjE9get_valueEPPv
	.xword	_ZN7cvflann7anyimpl16small_any_policyIjE9get_valueEPKPv
	.xword	_ZN7cvflann7anyimpl21typed_base_any_policyIjE8get_sizeEv
	.xword	_ZN7cvflann7anyimpl21typed_base_any_policyIjE4typeEv
	.xword	_ZN7cvflann7anyimpl16small_any_policyIjE5printERSoPKPv
	.xword	_ZN7cvflann7anyimpl16small_any_policyIjED1Ev
	.xword	_ZN7cvflann7anyimpl16small_any_policyIjED0Ev
	.bss
	.align	3
	.set	.LANCHOR0,. + 0
	.type	_ZStL8__ioinit, %object
	.size	_ZStL8__ioinit, 1
_ZStL8__ioinit:
	.zero	1
	.section	.rodata._ZN7cvflann7anyimpl14big_any_policyIN2cv6StringEE5printERSoPKPv.str1.8,"aMS",@progbits,1
	.align	3
.LC0:
	.string	""
	.section	.rodata._ZN7cvflann7anyimpl14big_any_policyINS0_9empty_anyEE5printERSoPKPv.str1.8,"aMS",@progbits,1
	.align	3
.LC1:
	.string	"[empty_any]"
	.section	.rodata.str1.8,"aMS",@progbits,1
	.align	3
.LC2:
	.string	"%d "
	.zero	4
.LC3:
	.string	"\n"
	.zero	6
.LC4:
	.string	"%.1f "
	.text
.Letext0:
	.file 13 "/usr/include/c++/7/bits/basic_string.h"
	.file 14 "/usr/include/c++/7/bits/stringfwd.h"
	.file 15 "/usr/include/c++/7/cwchar"
	.file 16 "/usr/include/c++/7/new"
	.file 17 "/usr/include/aarch64-linux-gnu/c++/7/bits/c++config.h"
	.file 18 "/usr/include/c++/7/bits/exception_ptr.h"
	.file 19 "/usr/include/c++/7/type_traits"
	.file 20 "/usr/include/c++/7/bits/stl_pair.h"
	.file 21 "/usr/include/c++/7/bits/stl_iterator_base_types.h"
	.file 22 "/usr/include/c++/7/debug/debug.h"
	.file 23 "/usr/include/c++/7/cstdint"
	.file 24 "/usr/include/c++/7/clocale"
	.file 25 "/usr/include/c++/7/bits/allocator.h"
	.file 26 "/usr/include/c++/7/cstdlib"
	.file 27 "/usr/include/c++/7/cstdio"
	.file 28 "/usr/include/c++/7/bits/alloc_traits.h"
	.file 29 "/usr/include/c++/7/initializer_list"
	.file 30 "/usr/include/c++/7/system_error"
	.file 31 "/usr/include/c++/7/cwctype"
	.file 32 "/usr/include/c++/7/bits/ostream.tcc"
	.file 33 "/usr/include/c++/7/iosfwd"
	.file 34 "/usr/include/c++/7/cstddef"
	.file 35 "/usr/include/c++/7/bits/algorithmfwd.h"
	.file 36 "/usr/include/c++/7/bits/stl_construct.h"
	.file 37 "/usr/include/c++/7/bits/stl_algo.h"
	.file 38 "/usr/include/c++/7/cstring"
	.file 39 "/usr/include/c++/7/cmath"
	.file 40 "/usr/include/c++/7/bits/stl_uninitialized.h"
	.file 41 "/usr/include/c++/7/bits/stl_bvector.h"
	.file 42 "/usr/include/c++/7/bits/stl_iterator.h"
	.file 43 "/usr/include/c++/7/bits/vector.tcc"
	.file 44 "/usr/include/c++/7/bits/uses_allocator.h"
	.file 45 "/usr/include/c++/7/tuple"
	.file 46 "/usr/include/c++/7/functional"
	.file 47 "/usr/include/c++/7/bits/stl_tree.h"
	.file 48 "/usr/include/c++/7/bits/stl_function.h"
	.file 49 "/usr/include/c++/7/bits/stl_map.h"
	.file 50 "/usr/include/c++/7/ctime"
	.file 51 "/usr/include/c++/7/bits/uniform_int_dist.h"
	.file 52 "/usr/include/c++/7/bits/postypes.h"
	.file 53 "/usr/include/c++/7/bits/cpp_type_traits.h"
	.file 54 "/usr/include/c++/7/bits/stl_algobase.h"
	.file 55 "/usr/include/c++/7/bits/basic_ios.tcc"
	.file 56 "/usr/include/c++/7/bits/ostream_insert.h"
	.file 57 "/usr/include/c++/7/bits/functexcept.h"
	.file 58 "/usr/include/c++/7/bits/predefined_ops.h"
	.file 59 "/usr/include/c++/7/ext/numeric_traits.h"
	.file 60 "/usr/include/c++/7/ext/alloc_traits.h"
	.file 61 "/usr/include/c++/7/ext/aligned_buffer.h"
	.file 62 "/usr/include/c++/7/ext/type_traits.h"
	.file 63 "/usr/lib/gcc/aarch64-linux-gnu/7/include/stddef.h"
	.file 64 "/usr/lib/gcc/aarch64-linux-gnu/7/include/stdarg.h"
	.file 65 "<built-in>"
	.file 66 "/usr/include/aarch64-linux-gnu/bits/types/wint_t.h"
	.file 67 "/usr/include/aarch64-linux-gnu/bits/types/__mbstate_t.h"
	.file 68 "/usr/include/aarch64-linux-gnu/bits/types/mbstate_t.h"
	.file 69 "/usr/include/aarch64-linux-gnu/bits/types/__FILE.h"
	.file 70 "/usr/include/aarch64-linux-gnu/bits/libio.h"
	.file 71 "/usr/include/aarch64-linux-gnu/bits/types/FILE.h"
	.file 72 "/usr/include/wchar.h"
	.file 73 "/usr/include/aarch64-linux-gnu/bits/wchar2.h"
	.file 74 "/usr/include/aarch64-linux-gnu/bits/types/struct_tm.h"
	.file 75 "/usr/include/aarch64-linux-gnu/bits/types.h"
	.file 76 "/usr/include/aarch64-linux-gnu/bits/stdint-intn.h"
	.file 77 "/usr/include/aarch64-linux-gnu/bits/stdint-uintn.h"
	.file 78 "/usr/include/stdint.h"
	.file 79 "/usr/include/locale.h"
	.file 80 "/usr/include/aarch64-linux-gnu/bits/types/time_t.h"
	.file 81 "/usr/include/aarch64-linux-gnu/bits/types/clock_t.h"
	.file 82 "/usr/include/time.h"
	.file 83 "/usr/include/aarch64-linux-gnu/c++/7/bits/atomic_word.h"
	.file 84 "/usr/include/stdlib.h"
	.file 85 "/usr/include/aarch64-linux-gnu/bits/stdlib-float.h"
	.file 86 "/usr/include/aarch64-linux-gnu/bits/stdlib-bsearch.h"
	.file 87 "/usr/include/aarch64-linux-gnu/bits/stdlib.h"
	.file 88 "/usr/include/aarch64-linux-gnu/bits/_G_config.h"
	.file 89 "/usr/include/stdio.h"
	.file 90 "/usr/include/aarch64-linux-gnu/bits/sys_errlist.h"
	.file 91 "/usr/include/aarch64-linux-gnu/bits/stdio.h"
	.file 92 "/usr/include/errno.h"
	.file 93 "/usr/include/aarch64-linux-gnu/bits/wctype-wchar.h"
	.file 94 "/usr/include/wctype.h"
	.file 95 "/usr/include/opencv2/core/hal/interface.h"
	.file 96 "/usr/include/string.h"
	.file 97 "/usr/include/math.h"
	.file 98 "/usr/include/opencv2/core/ptr.inl.hpp"
	.file 99 "/usr/include/opencv2/stitching/detail/warpers.hpp"
	.file 100 "/usr/include/opencv2/stitching/detail/matchers.hpp"
	.file 101 "/usr/include/opencv2/stitching/detail/exposure_compensate.hpp"
	.file 102 "/usr/include/opencv2/stitching/detail/seam_finders.hpp"
	.file 103 "/usr/include/opencv2/core/persistence.hpp"
	.file 104 "/usr/include/opencv2/core/base.hpp"
	.file 105 "/usr/include/opencv2/core/traits.hpp"
	.file 106 "/usr/include/opencv2/core/matx.hpp"
	.file 107 "/usr/include/opencv2/core/operations.hpp"
	.file 108 "/usr/include/opencv2/core/types.hpp"
	.file 109 "/usr/include/opencv2/core/mat.hpp"
	.file 110 "/usr/include/opencv2/core/cuda.hpp"
	.file 111 "/usr/include/opencv2/core/utility.hpp"
	.file 112 "/usr/include/opencv2/flann/miniflann.hpp"
	.file 113 "/usr/include/opencv2/flann.hpp"
	.file 114 "/usr/include/opencv2/calib3d.hpp"
	.file 115 "/usr/include/opencv2/ml.hpp"
	.file 116 "/usr/include/opencv2/stitching/warpers.hpp"
	.file 117 "/usr/include/opencv2/superres/optical_flow.hpp"
	.file 118 "/usr/include/opencv2/videostab/optical_flow.hpp"
	.file 119 "/usr/include/opencv2/videostab/motion_core.hpp"
	.file 120 "/usr/include/opencv2/videostab/global_motion.hpp"
	.file 121 "/usr/include/opencv2/videostab/outlier_rejection.hpp"
	.file 122 "/usr/include/opencv2/videostab/motion_stabilizing.hpp"
	.file 123 "/usr/include/opencv2/videostab/frame_source.hpp"
	.file 124 "/usr/include/opencv2/videostab/inpainting.hpp"
	.file 125 "/usr/include/opencv2/videostab/log.hpp"
	.file 126 "/usr/include/opencv2/videostab/deblurring.hpp"
	.file 127 "/usr/include/opencv2/videostab/wobble_suppression.hpp"
	.file 128 "/usr/include/aarch64-linux-gnu/bits/mathcalls.h"
	.file 129 "/usr/include/opencv2/core/types_c.h"
	.file 130 "/usr/include/c++/7/stdlib.h"
	.file 131 "/usr/include/opencv2/flann/defines.h"
	.file 132 "/usr/include/opencv2/flann/dist.h"
	.file 133 "/usr/include/opencv2/flann/allocator.h"
	.file 134 "/usr/include/opencv2/flann/lsh_table.h"
	.file 135 "/usr/include/opencv2/flann/params.h"
	.file 136 "/usr/include/c++/7/math.h"